
rtarget:     file format elf64-x86-64


Disassembly of section .init:

0000000000400c48 <_init>:
  400c48:	48 83 ec 08          	sub    $0x8,%rsp
  400c4c:	48 8b 05 a5 43 20 00 	mov    0x2043a5(%rip),%rax        # 604ff8 <_DYNAMIC+0x1d0>
  400c53:	48 85 c0             	test   %rax,%rax
  400c56:	74 05                	je     400c5d <_init+0x15>
  400c58:	e8 43 02 00 00       	callq  400ea0 <socket@plt+0x10>
  400c5d:	48 83 c4 08          	add    $0x8,%rsp
  400c61:	c3                   	retq   

Disassembly of section .plt:

0000000000400c70 <strcasecmp@plt-0x10>:
  400c70:	ff 35 92 43 20 00    	pushq  0x204392(%rip)        # 605008 <_GLOBAL_OFFSET_TABLE_+0x8>
  400c76:	ff 25 94 43 20 00    	jmpq   *0x204394(%rip)        # 605010 <_GLOBAL_OFFSET_TABLE_+0x10>
  400c7c:	0f 1f 40 00          	nopl   0x0(%rax)

0000000000400c80 <strcasecmp@plt>:
  400c80:	ff 25 92 43 20 00    	jmpq   *0x204392(%rip)        # 605018 <_GLOBAL_OFFSET_TABLE_+0x18>
  400c86:	68 00 00 00 00       	pushq  $0x0
  400c8b:	e9 e0 ff ff ff       	jmpq   400c70 <_init+0x28>

0000000000400c90 <__errno_location@plt>:
  400c90:	ff 25 8a 43 20 00    	jmpq   *0x20438a(%rip)        # 605020 <_GLOBAL_OFFSET_TABLE_+0x20>
  400c96:	68 01 00 00 00       	pushq  $0x1
  400c9b:	e9 d0 ff ff ff       	jmpq   400c70 <_init+0x28>

0000000000400ca0 <srandom@plt>:
  400ca0:	ff 25 82 43 20 00    	jmpq   *0x204382(%rip)        # 605028 <_GLOBAL_OFFSET_TABLE_+0x28>
  400ca6:	68 02 00 00 00       	pushq  $0x2
  400cab:	e9 c0 ff ff ff       	jmpq   400c70 <_init+0x28>

0000000000400cb0 <strncmp@plt>:
  400cb0:	ff 25 7a 43 20 00    	jmpq   *0x20437a(%rip)        # 605030 <_GLOBAL_OFFSET_TABLE_+0x30>
  400cb6:	68 03 00 00 00       	pushq  $0x3
  400cbb:	e9 b0 ff ff ff       	jmpq   400c70 <_init+0x28>

0000000000400cc0 <strcpy@plt>:
  400cc0:	ff 25 72 43 20 00    	jmpq   *0x204372(%rip)        # 605038 <_GLOBAL_OFFSET_TABLE_+0x38>
  400cc6:	68 04 00 00 00       	pushq  $0x4
  400ccb:	e9 a0 ff ff ff       	jmpq   400c70 <_init+0x28>

0000000000400cd0 <puts@plt>:
  400cd0:	ff 25 6a 43 20 00    	jmpq   *0x20436a(%rip)        # 605040 <_GLOBAL_OFFSET_TABLE_+0x40>
  400cd6:	68 05 00 00 00       	pushq  $0x5
  400cdb:	e9 90 ff ff ff       	jmpq   400c70 <_init+0x28>

0000000000400ce0 <write@plt>:
  400ce0:	ff 25 62 43 20 00    	jmpq   *0x204362(%rip)        # 605048 <_GLOBAL_OFFSET_TABLE_+0x48>
  400ce6:	68 06 00 00 00       	pushq  $0x6
  400ceb:	e9 80 ff ff ff       	jmpq   400c70 <_init+0x28>

0000000000400cf0 <__stack_chk_fail@plt>:
  400cf0:	ff 25 5a 43 20 00    	jmpq   *0x20435a(%rip)        # 605050 <_GLOBAL_OFFSET_TABLE_+0x50>
  400cf6:	68 07 00 00 00       	pushq  $0x7
  400cfb:	e9 70 ff ff ff       	jmpq   400c70 <_init+0x28>

0000000000400d00 <mmap@plt>:
  400d00:	ff 25 52 43 20 00    	jmpq   *0x204352(%rip)        # 605058 <_GLOBAL_OFFSET_TABLE_+0x58>
  400d06:	68 08 00 00 00       	pushq  $0x8
  400d0b:	e9 60 ff ff ff       	jmpq   400c70 <_init+0x28>

0000000000400d10 <memset@plt>:
  400d10:	ff 25 4a 43 20 00    	jmpq   *0x20434a(%rip)        # 605060 <_GLOBAL_OFFSET_TABLE_+0x60>
  400d16:	68 09 00 00 00       	pushq  $0x9
  400d1b:	e9 50 ff ff ff       	jmpq   400c70 <_init+0x28>

0000000000400d20 <alarm@plt>:
  400d20:	ff 25 42 43 20 00    	jmpq   *0x204342(%rip)        # 605068 <_GLOBAL_OFFSET_TABLE_+0x68>
  400d26:	68 0a 00 00 00       	pushq  $0xa
  400d2b:	e9 40 ff ff ff       	jmpq   400c70 <_init+0x28>

0000000000400d30 <close@plt>:
  400d30:	ff 25 3a 43 20 00    	jmpq   *0x20433a(%rip)        # 605070 <_GLOBAL_OFFSET_TABLE_+0x70>
  400d36:	68 0b 00 00 00       	pushq  $0xb
  400d3b:	e9 30 ff ff ff       	jmpq   400c70 <_init+0x28>

0000000000400d40 <read@plt>:
  400d40:	ff 25 32 43 20 00    	jmpq   *0x204332(%rip)        # 605078 <_GLOBAL_OFFSET_TABLE_+0x78>
  400d46:	68 0c 00 00 00       	pushq  $0xc
  400d4b:	e9 20 ff ff ff       	jmpq   400c70 <_init+0x28>

0000000000400d50 <__libc_start_main@plt>:
  400d50:	ff 25 2a 43 20 00    	jmpq   *0x20432a(%rip)        # 605080 <_GLOBAL_OFFSET_TABLE_+0x80>
  400d56:	68 0d 00 00 00       	pushq  $0xd
  400d5b:	e9 10 ff ff ff       	jmpq   400c70 <_init+0x28>

0000000000400d60 <signal@plt>:
  400d60:	ff 25 22 43 20 00    	jmpq   *0x204322(%rip)        # 605088 <_GLOBAL_OFFSET_TABLE_+0x88>
  400d66:	68 0e 00 00 00       	pushq  $0xe
  400d6b:	e9 00 ff ff ff       	jmpq   400c70 <_init+0x28>

0000000000400d70 <gethostbyname@plt>:
  400d70:	ff 25 1a 43 20 00    	jmpq   *0x20431a(%rip)        # 605090 <_GLOBAL_OFFSET_TABLE_+0x90>
  400d76:	68 0f 00 00 00       	pushq  $0xf
  400d7b:	e9 f0 fe ff ff       	jmpq   400c70 <_init+0x28>

0000000000400d80 <__memmove_chk@plt>:
  400d80:	ff 25 12 43 20 00    	jmpq   *0x204312(%rip)        # 605098 <_GLOBAL_OFFSET_TABLE_+0x98>
  400d86:	68 10 00 00 00       	pushq  $0x10
  400d8b:	e9 e0 fe ff ff       	jmpq   400c70 <_init+0x28>

0000000000400d90 <strtol@plt>:
  400d90:	ff 25 0a 43 20 00    	jmpq   *0x20430a(%rip)        # 6050a0 <_GLOBAL_OFFSET_TABLE_+0xa0>
  400d96:	68 11 00 00 00       	pushq  $0x11
  400d9b:	e9 d0 fe ff ff       	jmpq   400c70 <_init+0x28>

0000000000400da0 <memcpy@plt>:
  400da0:	ff 25 02 43 20 00    	jmpq   *0x204302(%rip)        # 6050a8 <_GLOBAL_OFFSET_TABLE_+0xa8>
  400da6:	68 12 00 00 00       	pushq  $0x12
  400dab:	e9 c0 fe ff ff       	jmpq   400c70 <_init+0x28>

0000000000400db0 <time@plt>:
  400db0:	ff 25 fa 42 20 00    	jmpq   *0x2042fa(%rip)        # 6050b0 <_GLOBAL_OFFSET_TABLE_+0xb0>
  400db6:	68 13 00 00 00       	pushq  $0x13
  400dbb:	e9 b0 fe ff ff       	jmpq   400c70 <_init+0x28>

0000000000400dc0 <random@plt>:
  400dc0:	ff 25 f2 42 20 00    	jmpq   *0x2042f2(%rip)        # 6050b8 <_GLOBAL_OFFSET_TABLE_+0xb8>
  400dc6:	68 14 00 00 00       	pushq  $0x14
  400dcb:	e9 a0 fe ff ff       	jmpq   400c70 <_init+0x28>

0000000000400dd0 <_IO_getc@plt>:
  400dd0:	ff 25 ea 42 20 00    	jmpq   *0x2042ea(%rip)        # 6050c0 <_GLOBAL_OFFSET_TABLE_+0xc0>
  400dd6:	68 15 00 00 00       	pushq  $0x15
  400ddb:	e9 90 fe ff ff       	jmpq   400c70 <_init+0x28>

0000000000400de0 <__isoc99_sscanf@plt>:
  400de0:	ff 25 e2 42 20 00    	jmpq   *0x2042e2(%rip)        # 6050c8 <_GLOBAL_OFFSET_TABLE_+0xc8>
  400de6:	68 16 00 00 00       	pushq  $0x16
  400deb:	e9 80 fe ff ff       	jmpq   400c70 <_init+0x28>

0000000000400df0 <munmap@plt>:
  400df0:	ff 25 da 42 20 00    	jmpq   *0x2042da(%rip)        # 6050d0 <_GLOBAL_OFFSET_TABLE_+0xd0>
  400df6:	68 17 00 00 00       	pushq  $0x17
  400dfb:	e9 70 fe ff ff       	jmpq   400c70 <_init+0x28>

0000000000400e00 <__printf_chk@plt>:
  400e00:	ff 25 d2 42 20 00    	jmpq   *0x2042d2(%rip)        # 6050d8 <_GLOBAL_OFFSET_TABLE_+0xd8>
  400e06:	68 18 00 00 00       	pushq  $0x18
  400e0b:	e9 60 fe ff ff       	jmpq   400c70 <_init+0x28>

0000000000400e10 <fopen@plt>:
  400e10:	ff 25 ca 42 20 00    	jmpq   *0x2042ca(%rip)        # 6050e0 <_GLOBAL_OFFSET_TABLE_+0xe0>
  400e16:	68 19 00 00 00       	pushq  $0x19
  400e1b:	e9 50 fe ff ff       	jmpq   400c70 <_init+0x28>

0000000000400e20 <getopt@plt>:
  400e20:	ff 25 c2 42 20 00    	jmpq   *0x2042c2(%rip)        # 6050e8 <_GLOBAL_OFFSET_TABLE_+0xe8>
  400e26:	68 1a 00 00 00       	pushq  $0x1a
  400e2b:	e9 40 fe ff ff       	jmpq   400c70 <_init+0x28>

0000000000400e30 <strtoul@plt>:
  400e30:	ff 25 ba 42 20 00    	jmpq   *0x2042ba(%rip)        # 6050f0 <_GLOBAL_OFFSET_TABLE_+0xf0>
  400e36:	68 1b 00 00 00       	pushq  $0x1b
  400e3b:	e9 30 fe ff ff       	jmpq   400c70 <_init+0x28>

0000000000400e40 <gethostname@plt>:
  400e40:	ff 25 b2 42 20 00    	jmpq   *0x2042b2(%rip)        # 6050f8 <_GLOBAL_OFFSET_TABLE_+0xf8>
  400e46:	68 1c 00 00 00       	pushq  $0x1c
  400e4b:	e9 20 fe ff ff       	jmpq   400c70 <_init+0x28>

0000000000400e50 <exit@plt>:
  400e50:	ff 25 aa 42 20 00    	jmpq   *0x2042aa(%rip)        # 605100 <_GLOBAL_OFFSET_TABLE_+0x100>
  400e56:	68 1d 00 00 00       	pushq  $0x1d
  400e5b:	e9 10 fe ff ff       	jmpq   400c70 <_init+0x28>

0000000000400e60 <connect@plt>:
  400e60:	ff 25 a2 42 20 00    	jmpq   *0x2042a2(%rip)        # 605108 <_GLOBAL_OFFSET_TABLE_+0x108>
  400e66:	68 1e 00 00 00       	pushq  $0x1e
  400e6b:	e9 00 fe ff ff       	jmpq   400c70 <_init+0x28>

0000000000400e70 <__fprintf_chk@plt>:
  400e70:	ff 25 9a 42 20 00    	jmpq   *0x20429a(%rip)        # 605110 <_GLOBAL_OFFSET_TABLE_+0x110>
  400e76:	68 1f 00 00 00       	pushq  $0x1f
  400e7b:	e9 f0 fd ff ff       	jmpq   400c70 <_init+0x28>

0000000000400e80 <__sprintf_chk@plt>:
  400e80:	ff 25 92 42 20 00    	jmpq   *0x204292(%rip)        # 605118 <_GLOBAL_OFFSET_TABLE_+0x118>
  400e86:	68 20 00 00 00       	pushq  $0x20
  400e8b:	e9 e0 fd ff ff       	jmpq   400c70 <_init+0x28>

0000000000400e90 <socket@plt>:
  400e90:	ff 25 8a 42 20 00    	jmpq   *0x20428a(%rip)        # 605120 <_GLOBAL_OFFSET_TABLE_+0x120>
  400e96:	68 21 00 00 00       	pushq  $0x21
  400e9b:	e9 d0 fd ff ff       	jmpq   400c70 <_init+0x28>

Disassembly of section .plt.got:

0000000000400ea0 <.plt.got>:
  400ea0:	ff 25 52 41 20 00    	jmpq   *0x204152(%rip)        # 604ff8 <_DYNAMIC+0x1d0>
  400ea6:	66 90                	xchg   %ax,%ax

Disassembly of section .text:

0000000000400eb0 <_start>:
  400eb0:	31 ed                	xor    %ebp,%ebp
  400eb2:	49 89 d1             	mov    %rdx,%r9
  400eb5:	5e                   	pop    %rsi
  400eb6:	48 89 e2             	mov    %rsp,%rdx
  400eb9:	48 83 e4 f0          	and    $0xfffffffffffffff0,%rsp
  400ebd:	50                   	push   %rax
  400ebe:	54                   	push   %rsp
  400ebf:	49 c7 c0 e0 2e 40 00 	mov    $0x402ee0,%r8
  400ec6:	48 c7 c1 70 2e 40 00 	mov    $0x402e70,%rcx
  400ecd:	48 c7 c7 b5 11 40 00 	mov    $0x4011b5,%rdi
  400ed4:	e8 77 fe ff ff       	callq  400d50 <__libc_start_main@plt>
  400ed9:	f4                   	hlt    
  400eda:	66 0f 1f 44 00 00    	nopw   0x0(%rax,%rax,1)

0000000000400ee0 <deregister_tm_clones>:
  400ee0:	b8 b7 54 60 00       	mov    $0x6054b7,%eax
  400ee5:	55                   	push   %rbp
  400ee6:	48 2d b0 54 60 00    	sub    $0x6054b0,%rax
  400eec:	48 83 f8 0e          	cmp    $0xe,%rax
  400ef0:	48 89 e5             	mov    %rsp,%rbp
  400ef3:	76 1b                	jbe    400f10 <deregister_tm_clones+0x30>
  400ef5:	b8 00 00 00 00       	mov    $0x0,%eax
  400efa:	48 85 c0             	test   %rax,%rax
  400efd:	74 11                	je     400f10 <deregister_tm_clones+0x30>
  400eff:	5d                   	pop    %rbp
  400f00:	bf b0 54 60 00       	mov    $0x6054b0,%edi
  400f05:	ff e0                	jmpq   *%rax
  400f07:	66 0f 1f 84 00 00 00 	nopw   0x0(%rax,%rax,1)
  400f0e:	00 00 
  400f10:	5d                   	pop    %rbp
  400f11:	c3                   	retq   
  400f12:	0f 1f 40 00          	nopl   0x0(%rax)
  400f16:	66 2e 0f 1f 84 00 00 	nopw   %cs:0x0(%rax,%rax,1)
  400f1d:	00 00 00 

0000000000400f20 <register_tm_clones>:
  400f20:	be b0 54 60 00       	mov    $0x6054b0,%esi
  400f25:	55                   	push   %rbp
  400f26:	48 81 ee b0 54 60 00 	sub    $0x6054b0,%rsi
  400f2d:	48 c1 fe 03          	sar    $0x3,%rsi
  400f31:	48 89 e5             	mov    %rsp,%rbp
  400f34:	48 89 f0             	mov    %rsi,%rax
  400f37:	48 c1 e8 3f          	shr    $0x3f,%rax
  400f3b:	48 01 c6             	add    %rax,%rsi
  400f3e:	48 d1 fe             	sar    %rsi
  400f41:	74 15                	je     400f58 <register_tm_clones+0x38>
  400f43:	b8 00 00 00 00       	mov    $0x0,%eax
  400f48:	48 85 c0             	test   %rax,%rax
  400f4b:	74 0b                	je     400f58 <register_tm_clones+0x38>
  400f4d:	5d                   	pop    %rbp
  400f4e:	bf b0 54 60 00       	mov    $0x6054b0,%edi
  400f53:	ff e0                	jmpq   *%rax
  400f55:	0f 1f 00             	nopl   (%rax)
  400f58:	5d                   	pop    %rbp
  400f59:	c3                   	retq   
  400f5a:	66 0f 1f 44 00 00    	nopw   0x0(%rax,%rax,1)

0000000000400f60 <__do_global_dtors_aux>:
  400f60:	80 3d 81 45 20 00 00 	cmpb   $0x0,0x204581(%rip)        # 6054e8 <completed.7594>
  400f67:	75 11                	jne    400f7a <__do_global_dtors_aux+0x1a>
  400f69:	55                   	push   %rbp
  400f6a:	48 89 e5             	mov    %rsp,%rbp
  400f6d:	e8 6e ff ff ff       	callq  400ee0 <deregister_tm_clones>
  400f72:	5d                   	pop    %rbp
  400f73:	c6 05 6e 45 20 00 01 	movb   $0x1,0x20456e(%rip)        # 6054e8 <completed.7594>
  400f7a:	f3 c3                	repz retq 
  400f7c:	0f 1f 40 00          	nopl   0x0(%rax)

0000000000400f80 <frame_dummy>:
  400f80:	bf 20 4e 60 00       	mov    $0x604e20,%edi
  400f85:	48 83 3f 00          	cmpq   $0x0,(%rdi)
  400f89:	75 05                	jne    400f90 <frame_dummy+0x10>
  400f8b:	eb 93                	jmp    400f20 <register_tm_clones>
  400f8d:	0f 1f 00             	nopl   (%rax)
  400f90:	b8 00 00 00 00       	mov    $0x0,%eax
  400f95:	48 85 c0             	test   %rax,%rax
  400f98:	74 f1                	je     400f8b <frame_dummy+0xb>
  400f9a:	55                   	push   %rbp
  400f9b:	48 89 e5             	mov    %rsp,%rbp
  400f9e:	ff d0                	callq  *%rax
  400fa0:	5d                   	pop    %rbp
  400fa1:	e9 7a ff ff ff       	jmpq   400f20 <register_tm_clones>

0000000000400fa6 <usage>:
  400fa6:	48 83 ec 08          	sub    $0x8,%rsp
  400faa:	48 89 fa             	mov    %rdi,%rdx
  400fad:	83 3d 74 45 20 00 00 	cmpl   $0x0,0x204574(%rip)        # 605528 <is_checker>
  400fb4:	74 3e                	je     400ff4 <usage+0x4e>
  400fb6:	be f8 2e 40 00       	mov    $0x402ef8,%esi
  400fbb:	bf 01 00 00 00       	mov    $0x1,%edi
  400fc0:	b8 00 00 00 00       	mov    $0x0,%eax
  400fc5:	e8 36 fe ff ff       	callq  400e00 <__printf_chk@plt>
  400fca:	bf 30 2f 40 00       	mov    $0x402f30,%edi
  400fcf:	e8 fc fc ff ff       	callq  400cd0 <puts@plt>
  400fd4:	bf a8 30 40 00       	mov    $0x4030a8,%edi
  400fd9:	e8 f2 fc ff ff       	callq  400cd0 <puts@plt>
  400fde:	bf 58 2f 40 00       	mov    $0x402f58,%edi
  400fe3:	e8 e8 fc ff ff       	callq  400cd0 <puts@plt>
  400fe8:	bf c2 30 40 00       	mov    $0x4030c2,%edi
  400fed:	e8 de fc ff ff       	callq  400cd0 <puts@plt>
  400ff2:	eb 32                	jmp    401026 <usage+0x80>
  400ff4:	be de 30 40 00       	mov    $0x4030de,%esi
  400ff9:	bf 01 00 00 00       	mov    $0x1,%edi
  400ffe:	b8 00 00 00 00       	mov    $0x0,%eax
  401003:	e8 f8 fd ff ff       	callq  400e00 <__printf_chk@plt>
  401008:	bf 80 2f 40 00       	mov    $0x402f80,%edi
  40100d:	e8 be fc ff ff       	callq  400cd0 <puts@plt>
  401012:	bf a8 2f 40 00       	mov    $0x402fa8,%edi
  401017:	e8 b4 fc ff ff       	callq  400cd0 <puts@plt>
  40101c:	bf fc 30 40 00       	mov    $0x4030fc,%edi
  401021:	e8 aa fc ff ff       	callq  400cd0 <puts@plt>
  401026:	bf 00 00 00 00       	mov    $0x0,%edi
  40102b:	e8 20 fe ff ff       	callq  400e50 <exit@plt>

0000000000401030 <initialize_target>:
  401030:	55                   	push   %rbp
  401031:	53                   	push   %rbx
  401032:	48 81 ec 18 21 00 00 	sub    $0x2118,%rsp
  401039:	89 f5                	mov    %esi,%ebp
  40103b:	64 48 8b 04 25 28 00 	mov    %fs:0x28,%rax
  401042:	00 00 
  401044:	48 89 84 24 08 21 00 	mov    %rax,0x2108(%rsp)
  40104b:	00 
  40104c:	31 c0                	xor    %eax,%eax
  40104e:	89 3d c4 44 20 00    	mov    %edi,0x2044c4(%rip)        # 605518 <check_level>
  401054:	8b 3d 0e 41 20 00    	mov    0x20410e(%rip),%edi        # 605168 <target_id>
  40105a:	e8 f1 1d 00 00       	callq  402e50 <gencookie>
  40105f:	89 05 bf 44 20 00    	mov    %eax,0x2044bf(%rip)        # 605524 <cookie>
  401065:	89 c7                	mov    %eax,%edi
  401067:	e8 e4 1d 00 00       	callq  402e50 <gencookie>
  40106c:	89 05 ae 44 20 00    	mov    %eax,0x2044ae(%rip)        # 605520 <authkey>
  401072:	8b 05 f0 40 20 00    	mov    0x2040f0(%rip),%eax        # 605168 <target_id>
  401078:	8d 78 01             	lea    0x1(%rax),%edi
  40107b:	e8 20 fc ff ff       	callq  400ca0 <srandom@plt>
  401080:	e8 3b fd ff ff       	callq  400dc0 <random@plt>
  401085:	89 c7                	mov    %eax,%edi
  401087:	e8 03 03 00 00       	callq  40138f <scramble>
  40108c:	89 c3                	mov    %eax,%ebx
  40108e:	85 ed                	test   %ebp,%ebp
  401090:	74 18                	je     4010aa <initialize_target+0x7a>
  401092:	bf 00 00 00 00       	mov    $0x0,%edi
  401097:	e8 14 fd ff ff       	callq  400db0 <time@plt>
  40109c:	89 c7                	mov    %eax,%edi
  40109e:	e8 fd fb ff ff       	callq  400ca0 <srandom@plt>
  4010a3:	e8 18 fd ff ff       	callq  400dc0 <random@plt>
  4010a8:	eb 05                	jmp    4010af <initialize_target+0x7f>
  4010aa:	b8 00 00 00 00       	mov    $0x0,%eax
  4010af:	01 c3                	add    %eax,%ebx
  4010b1:	0f b7 db             	movzwl %bx,%ebx
  4010b4:	8d 04 dd 00 01 00 00 	lea    0x100(,%rbx,8),%eax
  4010bb:	89 c0                	mov    %eax,%eax
  4010bd:	48 89 05 dc 43 20 00 	mov    %rax,0x2043dc(%rip)        # 6054a0 <buf_offset>
  4010c4:	c6 05 7d 50 20 00 72 	movb   $0x72,0x20507d(%rip)        # 606148 <target_prefix>
  4010cb:	83 3d d6 43 20 00 00 	cmpl   $0x0,0x2043d6(%rip)        # 6054a8 <notify>
  4010d2:	0f 84 bb 00 00 00    	je     401193 <initialize_target+0x163>
  4010d8:	83 3d 49 44 20 00 00 	cmpl   $0x0,0x204449(%rip)        # 605528 <is_checker>
  4010df:	0f 85 ae 00 00 00    	jne    401193 <initialize_target+0x163>
  4010e5:	be 00 01 00 00       	mov    $0x100,%esi
  4010ea:	48 89 e7             	mov    %rsp,%rdi
  4010ed:	e8 4e fd ff ff       	callq  400e40 <gethostname@plt>
  4010f2:	85 c0                	test   %eax,%eax
  4010f4:	74 25                	je     40111b <initialize_target+0xeb>
  4010f6:	bf d8 2f 40 00       	mov    $0x402fd8,%edi
  4010fb:	e8 d0 fb ff ff       	callq  400cd0 <puts@plt>
  401100:	bf 08 00 00 00       	mov    $0x8,%edi
  401105:	e8 46 fd ff ff       	callq  400e50 <exit@plt>
  40110a:	48 89 e6             	mov    %rsp,%rsi
  40110d:	e8 6e fb ff ff       	callq  400c80 <strcasecmp@plt>
  401112:	85 c0                	test   %eax,%eax
  401114:	74 21                	je     401137 <initialize_target+0x107>
  401116:	83 c3 01             	add    $0x1,%ebx
  401119:	eb 05                	jmp    401120 <initialize_target+0xf0>
  40111b:	bb 00 00 00 00       	mov    $0x0,%ebx
  401120:	48 63 c3             	movslq %ebx,%rax
  401123:	48 8b 3c c5 80 51 60 	mov    0x605180(,%rax,8),%rdi
  40112a:	00 
  40112b:	48 85 ff             	test   %rdi,%rdi
  40112e:	75 da                	jne    40110a <initialize_target+0xda>
  401130:	b8 00 00 00 00       	mov    $0x0,%eax
  401135:	eb 05                	jmp    40113c <initialize_target+0x10c>
  401137:	b8 01 00 00 00       	mov    $0x1,%eax
  40113c:	85 c0                	test   %eax,%eax
  40113e:	75 1c                	jne    40115c <initialize_target+0x12c>
  401140:	48 89 e2             	mov    %rsp,%rdx
  401143:	be 10 30 40 00       	mov    $0x403010,%esi
  401148:	bf 01 00 00 00       	mov    $0x1,%edi
  40114d:	e8 ae fc ff ff       	callq  400e00 <__printf_chk@plt>
  401152:	bf 08 00 00 00       	mov    $0x8,%edi
  401157:	e8 f4 fc ff ff       	callq  400e50 <exit@plt>
  40115c:	48 8d bc 24 00 01 00 	lea    0x100(%rsp),%rdi
  401163:	00 
  401164:	e8 51 1a 00 00       	callq  402bba <init_driver>
  401169:	85 c0                	test   %eax,%eax
  40116b:	79 26                	jns    401193 <initialize_target+0x163>
  40116d:	48 8d 94 24 00 01 00 	lea    0x100(%rsp),%rdx
  401174:	00 
  401175:	be 50 30 40 00       	mov    $0x403050,%esi
  40117a:	bf 01 00 00 00       	mov    $0x1,%edi
  40117f:	b8 00 00 00 00       	mov    $0x0,%eax
  401184:	e8 77 fc ff ff       	callq  400e00 <__printf_chk@plt>
  401189:	bf 08 00 00 00       	mov    $0x8,%edi
  40118e:	e8 bd fc ff ff       	callq  400e50 <exit@plt>
  401193:	48 8b 84 24 08 21 00 	mov    0x2108(%rsp),%rax
  40119a:	00 
  40119b:	64 48 33 04 25 28 00 	xor    %fs:0x28,%rax
  4011a2:	00 00 
  4011a4:	74 05                	je     4011ab <initialize_target+0x17b>
  4011a6:	e8 45 fb ff ff       	callq  400cf0 <__stack_chk_fail@plt>
  4011ab:	48 81 c4 18 21 00 00 	add    $0x2118,%rsp
  4011b2:	5b                   	pop    %rbx
  4011b3:	5d                   	pop    %rbp
  4011b4:	c3                   	retq   

00000000004011b5 <main>:
  4011b5:	41 56                	push   %r14
  4011b7:	41 55                	push   %r13
  4011b9:	41 54                	push   %r12
  4011bb:	55                   	push   %rbp
  4011bc:	53                   	push   %rbx
  4011bd:	41 89 fc             	mov    %edi,%r12d
  4011c0:	48 89 f3             	mov    %rsi,%rbx
  4011c3:	be f5 1e 40 00       	mov    $0x401ef5,%esi
  4011c8:	bf 0b 00 00 00       	mov    $0xb,%edi
  4011cd:	e8 8e fb ff ff       	callq  400d60 <signal@plt>
  4011d2:	be a7 1e 40 00       	mov    $0x401ea7,%esi
  4011d7:	bf 07 00 00 00       	mov    $0x7,%edi
  4011dc:	e8 7f fb ff ff       	callq  400d60 <signal@plt>
  4011e1:	be 43 1f 40 00       	mov    $0x401f43,%esi
  4011e6:	bf 04 00 00 00       	mov    $0x4,%edi
  4011eb:	e8 70 fb ff ff       	callq  400d60 <signal@plt>
  4011f0:	83 3d 31 43 20 00 00 	cmpl   $0x0,0x204331(%rip)        # 605528 <is_checker>
  4011f7:	74 20                	je     401219 <main+0x64>
  4011f9:	be 91 1f 40 00       	mov    $0x401f91,%esi
  4011fe:	bf 0e 00 00 00       	mov    $0xe,%edi
  401203:	e8 58 fb ff ff       	callq  400d60 <signal@plt>
  401208:	bf 05 00 00 00       	mov    $0x5,%edi
  40120d:	e8 0e fb ff ff       	callq  400d20 <alarm@plt>
  401212:	bd 1a 31 40 00       	mov    $0x40311a,%ebp
  401217:	eb 05                	jmp    40121e <main+0x69>
  401219:	bd 15 31 40 00       	mov    $0x403115,%ebp
  40121e:	48 8b 05 9b 42 20 00 	mov    0x20429b(%rip),%rax        # 6054c0 <stdin@@GLIBC_2.2.5>
  401225:	48 89 05 e4 42 20 00 	mov    %rax,0x2042e4(%rip)        # 605510 <infile>
  40122c:	41 bd 00 00 00 00    	mov    $0x0,%r13d
  401232:	41 be 00 00 00 00    	mov    $0x0,%r14d
  401238:	e9 c6 00 00 00       	jmpq   401303 <main+0x14e>
  40123d:	83 e8 61             	sub    $0x61,%eax
  401240:	3c 10                	cmp    $0x10,%al
  401242:	0f 87 9c 00 00 00    	ja     4012e4 <main+0x12f>
  401248:	0f b6 c0             	movzbl %al,%eax
  40124b:	ff 24 c5 60 31 40 00 	jmpq   *0x403160(,%rax,8)
  401252:	48 8b 3b             	mov    (%rbx),%rdi
  401255:	e8 4c fd ff ff       	callq  400fa6 <usage>
  40125a:	be 7d 38 40 00       	mov    $0x40387d,%esi
  40125f:	48 8b 3d 62 42 20 00 	mov    0x204262(%rip),%rdi        # 6054c8 <optarg@@GLIBC_2.2.5>
  401266:	e8 a5 fb ff ff       	callq  400e10 <fopen@plt>
  40126b:	48 89 05 9e 42 20 00 	mov    %rax,0x20429e(%rip)        # 605510 <infile>
  401272:	48 85 c0             	test   %rax,%rax
  401275:	0f 85 88 00 00 00    	jne    401303 <main+0x14e>
  40127b:	48 8b 0d 46 42 20 00 	mov    0x204246(%rip),%rcx        # 6054c8 <optarg@@GLIBC_2.2.5>
  401282:	ba 22 31 40 00       	mov    $0x403122,%edx
  401287:	be 01 00 00 00       	mov    $0x1,%esi
  40128c:	48 8b 3d 4d 42 20 00 	mov    0x20424d(%rip),%rdi        # 6054e0 <stderr@@GLIBC_2.2.5>
  401293:	e8 d8 fb ff ff       	callq  400e70 <__fprintf_chk@plt>
  401298:	b8 01 00 00 00       	mov    $0x1,%eax
  40129d:	e9 e4 00 00 00       	jmpq   401386 <main+0x1d1>
  4012a2:	ba 10 00 00 00       	mov    $0x10,%edx
  4012a7:	be 00 00 00 00       	mov    $0x0,%esi
  4012ac:	48 8b 3d 15 42 20 00 	mov    0x204215(%rip),%rdi        # 6054c8 <optarg@@GLIBC_2.2.5>
  4012b3:	e8 78 fb ff ff       	callq  400e30 <strtoul@plt>
  4012b8:	41 89 c6             	mov    %eax,%r14d
  4012bb:	eb 46                	jmp    401303 <main+0x14e>
  4012bd:	ba 0a 00 00 00       	mov    $0xa,%edx
  4012c2:	be 00 00 00 00       	mov    $0x0,%esi
  4012c7:	48 8b 3d fa 41 20 00 	mov    0x2041fa(%rip),%rdi        # 6054c8 <optarg@@GLIBC_2.2.5>
  4012ce:	e8 bd fa ff ff       	callq  400d90 <strtol@plt>
  4012d3:	41 89 c5             	mov    %eax,%r13d
  4012d6:	eb 2b                	jmp    401303 <main+0x14e>
  4012d8:	c7 05 c6 41 20 00 00 	movl   $0x0,0x2041c6(%rip)        # 6054a8 <notify>
  4012df:	00 00 00 
  4012e2:	eb 1f                	jmp    401303 <main+0x14e>
  4012e4:	0f be d2             	movsbl %dl,%edx
  4012e7:	be 3f 31 40 00       	mov    $0x40313f,%esi
  4012ec:	bf 01 00 00 00       	mov    $0x1,%edi
  4012f1:	b8 00 00 00 00       	mov    $0x0,%eax
  4012f6:	e8 05 fb ff ff       	callq  400e00 <__printf_chk@plt>
  4012fb:	48 8b 3b             	mov    (%rbx),%rdi
  4012fe:	e8 a3 fc ff ff       	callq  400fa6 <usage>
  401303:	48 89 ea             	mov    %rbp,%rdx
  401306:	48 89 de             	mov    %rbx,%rsi
  401309:	44 89 e7             	mov    %r12d,%edi
  40130c:	e8 0f fb ff ff       	callq  400e20 <getopt@plt>
  401311:	89 c2                	mov    %eax,%edx
  401313:	3c ff                	cmp    $0xff,%al
  401315:	0f 85 22 ff ff ff    	jne    40123d <main+0x88>
  40131b:	be 01 00 00 00       	mov    $0x1,%esi
  401320:	44 89 ef             	mov    %r13d,%edi
  401323:	e8 08 fd ff ff       	callq  401030 <initialize_target>
  401328:	83 3d f9 41 20 00 00 	cmpl   $0x0,0x2041f9(%rip)        # 605528 <is_checker>
  40132f:	74 2a                	je     40135b <main+0x1a6>
  401331:	44 3b 35 e8 41 20 00 	cmp    0x2041e8(%rip),%r14d        # 605520 <authkey>
  401338:	74 21                	je     40135b <main+0x1a6>
  40133a:	44 89 f2             	mov    %r14d,%edx
  40133d:	be 78 30 40 00       	mov    $0x403078,%esi
  401342:	bf 01 00 00 00       	mov    $0x1,%edi
  401347:	b8 00 00 00 00       	mov    $0x0,%eax
  40134c:	e8 af fa ff ff       	callq  400e00 <__printf_chk@plt>
  401351:	b8 00 00 00 00       	mov    $0x0,%eax
  401356:	e8 e8 07 00 00       	callq  401b43 <check_fail>
  40135b:	8b 15 c3 41 20 00    	mov    0x2041c3(%rip),%edx        # 605524 <cookie>
  401361:	be 52 31 40 00       	mov    $0x403152,%esi
  401366:	bf 01 00 00 00       	mov    $0x1,%edi
  40136b:	b8 00 00 00 00       	mov    $0x0,%eax
  401370:	e8 8b fa ff ff       	callq  400e00 <__printf_chk@plt>
  401375:	48 8b 3d 24 41 20 00 	mov    0x204124(%rip),%rdi        # 6054a0 <buf_offset>
  40137c:	e8 63 0c 00 00       	callq  401fe4 <launch>
  401381:	b8 00 00 00 00       	mov    $0x0,%eax
  401386:	5b                   	pop    %rbx
  401387:	5d                   	pop    %rbp
  401388:	41 5c                	pop    %r12
  40138a:	41 5d                	pop    %r13
  40138c:	41 5e                	pop    %r14
  40138e:	c3                   	retq   

000000000040138f <scramble>:
  40138f:	48 83 ec 38          	sub    $0x38,%rsp
  401393:	64 48 8b 04 25 28 00 	mov    %fs:0x28,%rax
  40139a:	00 00 
  40139c:	48 89 44 24 28       	mov    %rax,0x28(%rsp)
  4013a1:	31 c0                	xor    %eax,%eax
  4013a3:	eb 10                	jmp    4013b5 <scramble+0x26>
  4013a5:	69 d0 f2 98 00 00    	imul   $0x98f2,%eax,%edx
  4013ab:	01 fa                	add    %edi,%edx
  4013ad:	89 c1                	mov    %eax,%ecx
  4013af:	89 14 8c             	mov    %edx,(%rsp,%rcx,4)
  4013b2:	83 c0 01             	add    $0x1,%eax
  4013b5:	83 f8 09             	cmp    $0x9,%eax
  4013b8:	76 eb                	jbe    4013a5 <scramble+0x16>
  4013ba:	8b 44 24 04          	mov    0x4(%rsp),%eax
  4013be:	69 c0 f2 1d 00 00    	imul   $0x1df2,%eax,%eax
  4013c4:	89 44 24 04          	mov    %eax,0x4(%rsp)
  4013c8:	8b 44 24 04          	mov    0x4(%rsp),%eax
  4013cc:	69 c0 6c 16 00 00    	imul   $0x166c,%eax,%eax
  4013d2:	89 44 24 04          	mov    %eax,0x4(%rsp)
  4013d6:	8b 44 24 08          	mov    0x8(%rsp),%eax
  4013da:	69 c0 a1 22 00 00    	imul   $0x22a1,%eax,%eax
  4013e0:	89 44 24 08          	mov    %eax,0x8(%rsp)
  4013e4:	8b 44 24 1c          	mov    0x1c(%rsp),%eax
  4013e8:	69 c0 57 26 00 00    	imul   $0x2657,%eax,%eax
  4013ee:	89 44 24 1c          	mov    %eax,0x1c(%rsp)
  4013f2:	8b 44 24 14          	mov    0x14(%rsp),%eax
  4013f6:	69 c0 6f 34 00 00    	imul   $0x346f,%eax,%eax
  4013fc:	89 44 24 14          	mov    %eax,0x14(%rsp)
  401400:	8b 44 24 14          	mov    0x14(%rsp),%eax
  401404:	69 c0 14 78 00 00    	imul   $0x7814,%eax,%eax
  40140a:	89 44 24 14          	mov    %eax,0x14(%rsp)
  40140e:	8b 44 24 1c          	mov    0x1c(%rsp),%eax
  401412:	69 c0 1f f3 00 00    	imul   $0xf31f,%eax,%eax
  401418:	89 44 24 1c          	mov    %eax,0x1c(%rsp)
  40141c:	8b 44 24 14          	mov    0x14(%rsp),%eax
  401420:	69 c0 84 2b 00 00    	imul   $0x2b84,%eax,%eax
  401426:	89 44 24 14          	mov    %eax,0x14(%rsp)
  40142a:	8b 44 24 08          	mov    0x8(%rsp),%eax
  40142e:	69 c0 e5 19 00 00    	imul   $0x19e5,%eax,%eax
  401434:	89 44 24 08          	mov    %eax,0x8(%rsp)
  401438:	8b 44 24 24          	mov    0x24(%rsp),%eax
  40143c:	69 c0 75 54 00 00    	imul   $0x5475,%eax,%eax
  401442:	89 44 24 24          	mov    %eax,0x24(%rsp)
  401446:	8b 04 24             	mov    (%rsp),%eax
  401449:	69 c0 66 b8 00 00    	imul   $0xb866,%eax,%eax
  40144f:	89 04 24             	mov    %eax,(%rsp)
  401452:	8b 44 24 14          	mov    0x14(%rsp),%eax
  401456:	69 c0 93 76 00 00    	imul   $0x7693,%eax,%eax
  40145c:	89 44 24 14          	mov    %eax,0x14(%rsp)
  401460:	8b 44 24 24          	mov    0x24(%rsp),%eax
  401464:	69 c0 59 92 00 00    	imul   $0x9259,%eax,%eax
  40146a:	89 44 24 24          	mov    %eax,0x24(%rsp)
  40146e:	8b 44 24 14          	mov    0x14(%rsp),%eax
  401472:	69 c0 23 8f 00 00    	imul   $0x8f23,%eax,%eax
  401478:	89 44 24 14          	mov    %eax,0x14(%rsp)
  40147c:	8b 44 24 0c          	mov    0xc(%rsp),%eax
  401480:	69 c0 c5 26 00 00    	imul   $0x26c5,%eax,%eax
  401486:	89 44 24 0c          	mov    %eax,0xc(%rsp)
  40148a:	8b 44 24 04          	mov    0x4(%rsp),%eax
  40148e:	69 c0 f7 d4 00 00    	imul   $0xd4f7,%eax,%eax
  401494:	89 44 24 04          	mov    %eax,0x4(%rsp)
  401498:	8b 44 24 0c          	mov    0xc(%rsp),%eax
  40149c:	69 c0 76 49 00 00    	imul   $0x4976,%eax,%eax
  4014a2:	89 44 24 0c          	mov    %eax,0xc(%rsp)
  4014a6:	8b 44 24 24          	mov    0x24(%rsp),%eax
  4014aa:	69 c0 5e da 00 00    	imul   $0xda5e,%eax,%eax
  4014b0:	89 44 24 24          	mov    %eax,0x24(%rsp)
  4014b4:	8b 44 24 08          	mov    0x8(%rsp),%eax
  4014b8:	69 c0 6d c2 00 00    	imul   $0xc26d,%eax,%eax
  4014be:	89 44 24 08          	mov    %eax,0x8(%rsp)
  4014c2:	8b 44 24 1c          	mov    0x1c(%rsp),%eax
  4014c6:	69 c0 69 83 00 00    	imul   $0x8369,%eax,%eax
  4014cc:	89 44 24 1c          	mov    %eax,0x1c(%rsp)
  4014d0:	8b 44 24 04          	mov    0x4(%rsp),%eax
  4014d4:	69 c0 13 ca 00 00    	imul   $0xca13,%eax,%eax
  4014da:	89 44 24 04          	mov    %eax,0x4(%rsp)
  4014de:	8b 44 24 20          	mov    0x20(%rsp),%eax
  4014e2:	69 c0 38 ce 00 00    	imul   $0xce38,%eax,%eax
  4014e8:	89 44 24 20          	mov    %eax,0x20(%rsp)
  4014ec:	8b 44 24 18          	mov    0x18(%rsp),%eax
  4014f0:	69 c0 31 78 00 00    	imul   $0x7831,%eax,%eax
  4014f6:	89 44 24 18          	mov    %eax,0x18(%rsp)
  4014fa:	8b 44 24 18          	mov    0x18(%rsp),%eax
  4014fe:	69 c0 f9 1c 00 00    	imul   $0x1cf9,%eax,%eax
  401504:	89 44 24 18          	mov    %eax,0x18(%rsp)
  401508:	8b 44 24 14          	mov    0x14(%rsp),%eax
  40150c:	69 c0 76 21 00 00    	imul   $0x2176,%eax,%eax
  401512:	89 44 24 14          	mov    %eax,0x14(%rsp)
  401516:	8b 44 24 24          	mov    0x24(%rsp),%eax
  40151a:	69 c0 9b 72 00 00    	imul   $0x729b,%eax,%eax
  401520:	89 44 24 24          	mov    %eax,0x24(%rsp)
  401524:	8b 04 24             	mov    (%rsp),%eax
  401527:	69 c0 bb 21 00 00    	imul   $0x21bb,%eax,%eax
  40152d:	89 04 24             	mov    %eax,(%rsp)
  401530:	8b 44 24 18          	mov    0x18(%rsp),%eax
  401534:	69 c0 f4 6f 00 00    	imul   $0x6ff4,%eax,%eax
  40153a:	89 44 24 18          	mov    %eax,0x18(%rsp)
  40153e:	8b 44 24 24          	mov    0x24(%rsp),%eax
  401542:	69 c0 da 46 00 00    	imul   $0x46da,%eax,%eax
  401548:	89 44 24 24          	mov    %eax,0x24(%rsp)
  40154c:	8b 44 24 1c          	mov    0x1c(%rsp),%eax
  401550:	69 c0 19 f0 00 00    	imul   $0xf019,%eax,%eax
  401556:	89 44 24 1c          	mov    %eax,0x1c(%rsp)
  40155a:	8b 44 24 20          	mov    0x20(%rsp),%eax
  40155e:	69 c0 fc c1 00 00    	imul   $0xc1fc,%eax,%eax
  401564:	89 44 24 20          	mov    %eax,0x20(%rsp)
  401568:	8b 44 24 20          	mov    0x20(%rsp),%eax
  40156c:	69 c0 57 b2 00 00    	imul   $0xb257,%eax,%eax
  401572:	89 44 24 20          	mov    %eax,0x20(%rsp)
  401576:	8b 44 24 14          	mov    0x14(%rsp),%eax
  40157a:	69 c0 74 b0 00 00    	imul   $0xb074,%eax,%eax
  401580:	89 44 24 14          	mov    %eax,0x14(%rsp)
  401584:	8b 44 24 0c          	mov    0xc(%rsp),%eax
  401588:	69 c0 89 77 00 00    	imul   $0x7789,%eax,%eax
  40158e:	89 44 24 0c          	mov    %eax,0xc(%rsp)
  401592:	8b 44 24 18          	mov    0x18(%rsp),%eax
  401596:	69 c0 6b 8d 00 00    	imul   $0x8d6b,%eax,%eax
  40159c:	89 44 24 18          	mov    %eax,0x18(%rsp)
  4015a0:	8b 44 24 20          	mov    0x20(%rsp),%eax
  4015a4:	69 c0 be 69 00 00    	imul   $0x69be,%eax,%eax
  4015aa:	89 44 24 20          	mov    %eax,0x20(%rsp)
  4015ae:	8b 44 24 08          	mov    0x8(%rsp),%eax
  4015b2:	69 c0 70 f6 00 00    	imul   $0xf670,%eax,%eax
  4015b8:	89 44 24 08          	mov    %eax,0x8(%rsp)
  4015bc:	8b 44 24 0c          	mov    0xc(%rsp),%eax
  4015c0:	69 c0 b1 14 00 00    	imul   $0x14b1,%eax,%eax
  4015c6:	89 44 24 0c          	mov    %eax,0xc(%rsp)
  4015ca:	8b 44 24 08          	mov    0x8(%rsp),%eax
  4015ce:	69 c0 b3 31 00 00    	imul   $0x31b3,%eax,%eax
  4015d4:	89 44 24 08          	mov    %eax,0x8(%rsp)
  4015d8:	8b 44 24 24          	mov    0x24(%rsp),%eax
  4015dc:	69 c0 b7 00 00 00    	imul   $0xb7,%eax,%eax
  4015e2:	89 44 24 24          	mov    %eax,0x24(%rsp)
  4015e6:	8b 44 24 18          	mov    0x18(%rsp),%eax
  4015ea:	69 c0 19 a3 00 00    	imul   $0xa319,%eax,%eax
  4015f0:	89 44 24 18          	mov    %eax,0x18(%rsp)
  4015f4:	8b 44 24 08          	mov    0x8(%rsp),%eax
  4015f8:	69 c0 06 2d 00 00    	imul   $0x2d06,%eax,%eax
  4015fe:	89 44 24 08          	mov    %eax,0x8(%rsp)
  401602:	8b 44 24 20          	mov    0x20(%rsp),%eax
  401606:	69 c0 81 5c 00 00    	imul   $0x5c81,%eax,%eax
  40160c:	89 44 24 20          	mov    %eax,0x20(%rsp)
  401610:	8b 44 24 04          	mov    0x4(%rsp),%eax
  401614:	69 c0 e8 78 00 00    	imul   $0x78e8,%eax,%eax
  40161a:	89 44 24 04          	mov    %eax,0x4(%rsp)
  40161e:	8b 44 24 14          	mov    0x14(%rsp),%eax
  401622:	69 c0 11 9c 00 00    	imul   $0x9c11,%eax,%eax
  401628:	89 44 24 14          	mov    %eax,0x14(%rsp)
  40162c:	8b 44 24 04          	mov    0x4(%rsp),%eax
  401630:	69 c0 fa 10 00 00    	imul   $0x10fa,%eax,%eax
  401636:	89 44 24 04          	mov    %eax,0x4(%rsp)
  40163a:	8b 44 24 24          	mov    0x24(%rsp),%eax
  40163e:	69 c0 12 2e 00 00    	imul   $0x2e12,%eax,%eax
  401644:	89 44 24 24          	mov    %eax,0x24(%rsp)
  401648:	8b 04 24             	mov    (%rsp),%eax
  40164b:	69 c0 7f 69 00 00    	imul   $0x697f,%eax,%eax
  401651:	89 04 24             	mov    %eax,(%rsp)
  401654:	8b 44 24 04          	mov    0x4(%rsp),%eax
  401658:	69 c0 07 50 00 00    	imul   $0x5007,%eax,%eax
  40165e:	89 44 24 04          	mov    %eax,0x4(%rsp)
  401662:	8b 44 24 10          	mov    0x10(%rsp),%eax
  401666:	69 c0 67 51 00 00    	imul   $0x5167,%eax,%eax
  40166c:	89 44 24 10          	mov    %eax,0x10(%rsp)
  401670:	8b 44 24 18          	mov    0x18(%rsp),%eax
  401674:	69 c0 fb db 00 00    	imul   $0xdbfb,%eax,%eax
  40167a:	89 44 24 18          	mov    %eax,0x18(%rsp)
  40167e:	8b 44 24 04          	mov    0x4(%rsp),%eax
  401682:	69 c0 f1 34 00 00    	imul   $0x34f1,%eax,%eax
  401688:	89 44 24 04          	mov    %eax,0x4(%rsp)
  40168c:	8b 44 24 08          	mov    0x8(%rsp),%eax
  401690:	69 c0 1c f3 00 00    	imul   $0xf31c,%eax,%eax
  401696:	89 44 24 08          	mov    %eax,0x8(%rsp)
  40169a:	8b 44 24 24          	mov    0x24(%rsp),%eax
  40169e:	69 c0 0c 41 00 00    	imul   $0x410c,%eax,%eax
  4016a4:	89 44 24 24          	mov    %eax,0x24(%rsp)
  4016a8:	8b 44 24 14          	mov    0x14(%rsp),%eax
  4016ac:	69 c0 4c 7b 00 00    	imul   $0x7b4c,%eax,%eax
  4016b2:	89 44 24 14          	mov    %eax,0x14(%rsp)
  4016b6:	8b 44 24 10          	mov    0x10(%rsp),%eax
  4016ba:	69 c0 f9 77 00 00    	imul   $0x77f9,%eax,%eax
  4016c0:	89 44 24 10          	mov    %eax,0x10(%rsp)
  4016c4:	8b 44 24 04          	mov    0x4(%rsp),%eax
  4016c8:	69 c0 16 b5 00 00    	imul   $0xb516,%eax,%eax
  4016ce:	89 44 24 04          	mov    %eax,0x4(%rsp)
  4016d2:	8b 44 24 04          	mov    0x4(%rsp),%eax
  4016d6:	69 c0 3a e3 00 00    	imul   $0xe33a,%eax,%eax
  4016dc:	89 44 24 04          	mov    %eax,0x4(%rsp)
  4016e0:	8b 44 24 04          	mov    0x4(%rsp),%eax
  4016e4:	69 c0 fa 41 00 00    	imul   $0x41fa,%eax,%eax
  4016ea:	89 44 24 04          	mov    %eax,0x4(%rsp)
  4016ee:	8b 44 24 24          	mov    0x24(%rsp),%eax
  4016f2:	69 c0 f2 b4 00 00    	imul   $0xb4f2,%eax,%eax
  4016f8:	89 44 24 24          	mov    %eax,0x24(%rsp)
  4016fc:	8b 44 24 10          	mov    0x10(%rsp),%eax
  401700:	69 c0 24 c5 00 00    	imul   $0xc524,%eax,%eax
  401706:	89 44 24 10          	mov    %eax,0x10(%rsp)
  40170a:	8b 44 24 08          	mov    0x8(%rsp),%eax
  40170e:	69 c0 19 3c 00 00    	imul   $0x3c19,%eax,%eax
  401714:	89 44 24 08          	mov    %eax,0x8(%rsp)
  401718:	8b 44 24 18          	mov    0x18(%rsp),%eax
  40171c:	69 c0 3e 89 00 00    	imul   $0x893e,%eax,%eax
  401722:	89 44 24 18          	mov    %eax,0x18(%rsp)
  401726:	8b 44 24 04          	mov    0x4(%rsp),%eax
  40172a:	69 c0 bc d1 00 00    	imul   $0xd1bc,%eax,%eax
  401730:	89 44 24 04          	mov    %eax,0x4(%rsp)
  401734:	8b 04 24             	mov    (%rsp),%eax
  401737:	69 c0 a1 86 00 00    	imul   $0x86a1,%eax,%eax
  40173d:	89 04 24             	mov    %eax,(%rsp)
  401740:	8b 44 24 24          	mov    0x24(%rsp),%eax
  401744:	69 c0 b7 b6 00 00    	imul   $0xb6b7,%eax,%eax
  40174a:	89 44 24 24          	mov    %eax,0x24(%rsp)
  40174e:	8b 44 24 08          	mov    0x8(%rsp),%eax
  401752:	69 c0 4a de 00 00    	imul   $0xde4a,%eax,%eax
  401758:	89 44 24 08          	mov    %eax,0x8(%rsp)
  40175c:	8b 44 24 10          	mov    0x10(%rsp),%eax
  401760:	69 c0 08 35 00 00    	imul   $0x3508,%eax,%eax
  401766:	89 44 24 10          	mov    %eax,0x10(%rsp)
  40176a:	8b 44 24 1c          	mov    0x1c(%rsp),%eax
  40176e:	69 c0 4a 35 00 00    	imul   $0x354a,%eax,%eax
  401774:	89 44 24 1c          	mov    %eax,0x1c(%rsp)
  401778:	8b 44 24 0c          	mov    0xc(%rsp),%eax
  40177c:	69 c0 36 f6 00 00    	imul   $0xf636,%eax,%eax
  401782:	89 44 24 0c          	mov    %eax,0xc(%rsp)
  401786:	8b 44 24 14          	mov    0x14(%rsp),%eax
  40178a:	69 c0 d8 b7 00 00    	imul   $0xb7d8,%eax,%eax
  401790:	89 44 24 14          	mov    %eax,0x14(%rsp)
  401794:	ba 00 00 00 00       	mov    $0x0,%edx
  401799:	b8 00 00 00 00       	mov    $0x0,%eax
  40179e:	eb 0a                	jmp    4017aa <scramble+0x41b>
  4017a0:	89 d1                	mov    %edx,%ecx
  4017a2:	8b 0c 8c             	mov    (%rsp,%rcx,4),%ecx
  4017a5:	01 c8                	add    %ecx,%eax
  4017a7:	83 c2 01             	add    $0x1,%edx
  4017aa:	83 fa 09             	cmp    $0x9,%edx
  4017ad:	76 f1                	jbe    4017a0 <scramble+0x411>
  4017af:	48 8b 74 24 28       	mov    0x28(%rsp),%rsi
  4017b4:	64 48 33 34 25 28 00 	xor    %fs:0x28,%rsi
  4017bb:	00 00 
  4017bd:	74 05                	je     4017c4 <scramble+0x435>
  4017bf:	e8 2c f5 ff ff       	callq  400cf0 <__stack_chk_fail@plt>
  4017c4:	48 83 c4 38          	add    $0x38,%rsp
  4017c8:	c3                   	retq   

00000000004017c9 <getbuf>:
  4017c9:	48 83 ec 18          	sub    $0x18,%rsp
  4017cd:	48 89 e7             	mov    %rsp,%rdi
  4017d0:	e8 a3 03 00 00       	callq  401b78 <Gets>
  4017d5:	b8 01 00 00 00       	mov    $0x1,%eax
  4017da:	48 83 c4 18          	add    $0x18,%rsp
  4017de:	c3                   	retq   

00000000004017df <touch1>:
  4017df:	48 83 ec 08          	sub    $0x8,%rsp
  4017e3:	c7 05 2f 3d 20 00 01 	movl   $0x1,0x203d2f(%rip)        # 60551c <vlevel>
  4017ea:	00 00 00 
  4017ed:	bf d0 36 40 00       	mov    $0x4036d0,%edi
  4017f2:	e8 d9 f4 ff ff       	callq  400cd0 <puts@plt>
  4017f7:	bf 01 00 00 00       	mov    $0x1,%edi
  4017fc:	e8 bc 05 00 00       	callq  401dbd <validate>
  401801:	bf 00 00 00 00       	mov    $0x0,%edi
  401806:	e8 45 f6 ff ff       	callq  400e50 <exit@plt>

000000000040180b <touch2>:
  40180b:	48 83 ec 08          	sub    $0x8,%rsp
  40180f:	89 fa                	mov    %edi,%edx
  401811:	c7 05 01 3d 20 00 02 	movl   $0x2,0x203d01(%rip)        # 60551c <vlevel>
  401818:	00 00 00 
  40181b:	39 3d 03 3d 20 00    	cmp    %edi,0x203d03(%rip)        # 605524 <cookie>
  401821:	75 20                	jne    401843 <touch2+0x38>
  401823:	be f8 36 40 00       	mov    $0x4036f8,%esi
  401828:	bf 01 00 00 00       	mov    $0x1,%edi
  40182d:	b8 00 00 00 00       	mov    $0x0,%eax
  401832:	e8 c9 f5 ff ff       	callq  400e00 <__printf_chk@plt>
  401837:	bf 02 00 00 00       	mov    $0x2,%edi
  40183c:	e8 7c 05 00 00       	callq  401dbd <validate>
  401841:	eb 1e                	jmp    401861 <touch2+0x56>
  401843:	be 20 37 40 00       	mov    $0x403720,%esi
  401848:	bf 01 00 00 00       	mov    $0x1,%edi
  40184d:	b8 00 00 00 00       	mov    $0x0,%eax
  401852:	e8 a9 f5 ff ff       	callq  400e00 <__printf_chk@plt>
  401857:	bf 02 00 00 00       	mov    $0x2,%edi
  40185c:	e8 1e 06 00 00       	callq  401e7f <fail>
  401861:	bf 00 00 00 00       	mov    $0x0,%edi
  401866:	e8 e5 f5 ff ff       	callq  400e50 <exit@plt>

000000000040186b <hexmatch>:
  40186b:	41 54                	push   %r12
  40186d:	55                   	push   %rbp
  40186e:	53                   	push   %rbx
  40186f:	48 83 c4 80          	add    $0xffffffffffffff80,%rsp
  401873:	89 fd                	mov    %edi,%ebp
  401875:	48 89 f3             	mov    %rsi,%rbx
  401878:	64 48 8b 04 25 28 00 	mov    %fs:0x28,%rax
  40187f:	00 00 
  401881:	48 89 44 24 78       	mov    %rax,0x78(%rsp)
  401886:	31 c0                	xor    %eax,%eax
  401888:	e8 33 f5 ff ff       	callq  400dc0 <random@plt>
  40188d:	48 89 c1             	mov    %rax,%rcx
  401890:	48 ba 0b d7 a3 70 3d 	movabs $0xa3d70a3d70a3d70b,%rdx
  401897:	0a d7 a3 
  40189a:	48 f7 ea             	imul   %rdx
  40189d:	48 01 ca             	add    %rcx,%rdx
  4018a0:	48 c1 fa 06          	sar    $0x6,%rdx
  4018a4:	48 89 c8             	mov    %rcx,%rax
  4018a7:	48 c1 f8 3f          	sar    $0x3f,%rax
  4018ab:	48 29 c2             	sub    %rax,%rdx
  4018ae:	48 8d 04 92          	lea    (%rdx,%rdx,4),%rax
  4018b2:	48 8d 14 80          	lea    (%rax,%rax,4),%rdx
  4018b6:	48 8d 04 95 00 00 00 	lea    0x0(,%rdx,4),%rax
  4018bd:	00 
  4018be:	48 29 c1             	sub    %rax,%rcx
  4018c1:	4c 8d 24 0c          	lea    (%rsp,%rcx,1),%r12
  4018c5:	41 89 e8             	mov    %ebp,%r8d
  4018c8:	b9 ed 36 40 00       	mov    $0x4036ed,%ecx
  4018cd:	48 c7 c2 ff ff ff ff 	mov    $0xffffffffffffffff,%rdx
  4018d4:	be 01 00 00 00       	mov    $0x1,%esi
  4018d9:	4c 89 e7             	mov    %r12,%rdi
  4018dc:	b8 00 00 00 00       	mov    $0x0,%eax
  4018e1:	e8 9a f5 ff ff       	callq  400e80 <__sprintf_chk@plt>
  4018e6:	ba 09 00 00 00       	mov    $0x9,%edx
  4018eb:	4c 89 e6             	mov    %r12,%rsi
  4018ee:	48 89 df             	mov    %rbx,%rdi
  4018f1:	e8 ba f3 ff ff       	callq  400cb0 <strncmp@plt>
  4018f6:	85 c0                	test   %eax,%eax
  4018f8:	0f 94 c0             	sete   %al
  4018fb:	48 8b 5c 24 78       	mov    0x78(%rsp),%rbx
  401900:	64 48 33 1c 25 28 00 	xor    %fs:0x28,%rbx
  401907:	00 00 
  401909:	74 05                	je     401910 <hexmatch+0xa5>
  40190b:	e8 e0 f3 ff ff       	callq  400cf0 <__stack_chk_fail@plt>
  401910:	0f b6 c0             	movzbl %al,%eax
  401913:	48 83 ec 80          	sub    $0xffffffffffffff80,%rsp
  401917:	5b                   	pop    %rbx
  401918:	5d                   	pop    %rbp
  401919:	41 5c                	pop    %r12
  40191b:	c3                   	retq   

000000000040191c <touch3>:
  40191c:	53                   	push   %rbx
  40191d:	48 89 fb             	mov    %rdi,%rbx
  401920:	c7 05 f2 3b 20 00 03 	movl   $0x3,0x203bf2(%rip)        # 60551c <vlevel>
  401927:	00 00 00 
  40192a:	48 89 fe             	mov    %rdi,%rsi
  40192d:	8b 3d f1 3b 20 00    	mov    0x203bf1(%rip),%edi        # 605524 <cookie>
  401933:	e8 33 ff ff ff       	callq  40186b <hexmatch>
  401938:	85 c0                	test   %eax,%eax
  40193a:	74 23                	je     40195f <touch3+0x43>
  40193c:	48 89 da             	mov    %rbx,%rdx
  40193f:	be 48 37 40 00       	mov    $0x403748,%esi
  401944:	bf 01 00 00 00       	mov    $0x1,%edi
  401949:	b8 00 00 00 00       	mov    $0x0,%eax
  40194e:	e8 ad f4 ff ff       	callq  400e00 <__printf_chk@plt>
  401953:	bf 03 00 00 00       	mov    $0x3,%edi
  401958:	e8 60 04 00 00       	callq  401dbd <validate>
  40195d:	eb 21                	jmp    401980 <touch3+0x64>
  40195f:	48 89 da             	mov    %rbx,%rdx
  401962:	be 70 37 40 00       	mov    $0x403770,%esi
  401967:	bf 01 00 00 00       	mov    $0x1,%edi
  40196c:	b8 00 00 00 00       	mov    $0x0,%eax
  401971:	e8 8a f4 ff ff       	callq  400e00 <__printf_chk@plt>
  401976:	bf 03 00 00 00       	mov    $0x3,%edi
  40197b:	e8 ff 04 00 00       	callq  401e7f <fail>
  401980:	bf 00 00 00 00       	mov    $0x0,%edi
  401985:	e8 c6 f4 ff ff       	callq  400e50 <exit@plt>

000000000040198a <test>:
  40198a:	48 83 ec 08          	sub    $0x8,%rsp
  40198e:	b8 00 00 00 00       	mov    $0x0,%eax
  401993:	e8 31 fe ff ff       	callq  4017c9 <getbuf>
  401998:	89 c2                	mov    %eax,%edx
  40199a:	be 98 37 40 00       	mov    $0x403798,%esi
  40199f:	bf 01 00 00 00       	mov    $0x1,%edi
  4019a4:	b8 00 00 00 00       	mov    $0x0,%eax
  4019a9:	e8 52 f4 ff ff       	callq  400e00 <__printf_chk@plt>
  4019ae:	48 83 c4 08          	add    $0x8,%rsp
  4019b2:	c3                   	retq   

00000000004019b3 <start_farm>:
  4019b3:	b8 01 00 00 00       	mov    $0x1,%eax
  4019b8:	c3                   	retq   

00000000004019b9 <addval_210>:
  4019b9:	8d 87 73 d8 90 90    	lea    -0x6f6f278d(%rdi),%eax
  4019bf:	c3                   	retq   

00000000004019c0 <getval_441>:
  4019c0:	b8 48 89 c7 c7       	mov    $0xc7c78948,%eax
  4019c5:	c3                   	retq   

00000000004019c6 <setval_269>:
  4019c6:	c7 07 48 89 c7 90    	movl   $0x90c78948,(%rdi)
  4019cc:	c3                   	retq   

00000000004019cd <addval_184>:
  4019cd:	8d 87 48 89 c7 92    	lea    -0x6d3876b8(%rdi),%eax
  4019d3:	c3                   	retq   

00000000004019d4 <setval_400>:
  4019d4:	c7 07 f7 4a 58 c3    	movl   $0xc3584af7,(%rdi)
  4019da:	c3                   	retq   

00000000004019db <setval_435>:
  4019db:	c7 07 62 58 90 90    	movl   $0x90905862,(%rdi)
  4019e1:	c3                   	retq   

00000000004019e2 <setval_122>:
  4019e2:	c7 07 21 99 58 94    	movl   $0x94589921,(%rdi)
  4019e8:	c3                   	retq   

00000000004019e9 <setval_442>:
  4019e9:	c7 07 51 48 89 c7    	movl   $0xc7894851,(%rdi)
  4019ef:	c3                   	retq   

00000000004019f0 <mid_farm>:
  4019f0:	b8 01 00 00 00       	mov    $0x1,%eax
  4019f5:	c3                   	retq   

00000000004019f6 <add_xy>:
  4019f6:	48 8d 04 37          	lea    (%rdi,%rsi,1),%rax
  4019fa:	c3                   	retq   

00000000004019fb <getval_332>:
  4019fb:	b8 89 d6 90 c3       	mov    $0xc390d689,%eax
  401a00:	c3                   	retq   

0000000000401a01 <addval_437>:
  401a01:	8d 87 09 d6 38 c9    	lea    -0x36c729f7(%rdi),%eax
  401a07:	c3                   	retq   

0000000000401a08 <getval_195>:
  401a08:	b8 c9 ca 84 c0       	mov    $0xc084cac9,%eax
  401a0d:	c3                   	retq   

0000000000401a0e <addval_232>:
  401a0e:	8d 87 48 89 e0 90    	lea    -0x6f1f76b8(%rdi),%eax
  401a14:	c3                   	retq   

0000000000401a15 <addval_128>:
  401a15:	8d 87 89 c1 18 c9    	lea    -0x36e73e77(%rdi),%eax
  401a1b:	c3                   	retq   

0000000000401a1c <addval_343>:
  401a1c:	8d 87 49 89 e0 90    	lea    -0x6f1f76b7(%rdi),%eax
  401a22:	c3                   	retq   

0000000000401a23 <addval_199>:
  401a23:	8d 87 c9 c1 84 c9    	lea    -0x367b3e37(%rdi),%eax
  401a29:	c3                   	retq   

0000000000401a2a <addval_488>:
  401a2a:	8d 87 89 ca a4 d2    	lea    -0x2d5b3577(%rdi),%eax
  401a30:	c3                   	retq   

0000000000401a31 <addval_261>:
  401a31:	8d 87 89 c1 a4 db    	lea    -0x245b3e77(%rdi),%eax
  401a37:	c3                   	retq   

0000000000401a38 <setval_234>:
  401a38:	c7 07 88 c1 c3 50    	movl   $0x50c3c188,(%rdi)
  401a3e:	c3                   	retq   

0000000000401a3f <addval_351>:
  401a3f:	8d 87 99 ca 84 c9    	lea    -0x367b3567(%rdi),%eax
  401a45:	c3                   	retq   

0000000000401a46 <getval_321>:
  401a46:	b8 89 c1 48 d2       	mov    $0xd248c189,%eax
  401a4b:	c3                   	retq   

0000000000401a4c <getval_391>:
  401a4c:	b8 48 89 e0 c1       	mov    $0xc1e08948,%eax
  401a51:	c3                   	retq   

0000000000401a52 <getval_276>:
  401a52:	b8 89 d6 c4 d2       	mov    $0xd2c4d689,%eax
  401a57:	c3                   	retq   

0000000000401a58 <getval_283>:
  401a58:	b8 89 ca 84 c9       	mov    $0xc984ca89,%eax
  401a5d:	c3                   	retq   

0000000000401a5e <setval_461>:
  401a5e:	c7 07 48 89 e0 c7    	movl   $0xc7e08948,(%rdi)
  401a64:	c3                   	retq   

0000000000401a65 <setval_155>:
  401a65:	c7 07 d3 89 ca c3    	movl   $0xc3ca89d3,(%rdi)
  401a6b:	c3                   	retq   

0000000000401a6c <addval_149>:
  401a6c:	8d 87 2d 89 ca 94    	lea    -0x6b3576d3(%rdi),%eax
  401a72:	c3                   	retq   

0000000000401a73 <getval_364>:
  401a73:	b8 89 d6 60 c0       	mov    $0xc060d689,%eax
  401a78:	c3                   	retq   

0000000000401a79 <getval_316>:
  401a79:	b8 89 c1 08 db       	mov    $0xdb08c189,%eax
  401a7e:	c3                   	retq   

0000000000401a7f <addval_156>:
  401a7f:	8d 87 48 89 e0 c3    	lea    -0x3c1f76b8(%rdi),%eax
  401a85:	c3                   	retq   

0000000000401a86 <setval_482>:
  401a86:	c7 07 17 89 c1 c2    	movl   $0xc2c18917,(%rdi)
  401a8c:	c3                   	retq   

0000000000401a8d <addval_139>:
  401a8d:	8d 87 a9 d6 08 db    	lea    -0x24f72957(%rdi),%eax
  401a93:	c3                   	retq   

0000000000401a94 <setval_342>:
  401a94:	c7 07 48 89 e0 94    	movl   $0x94e08948,(%rdi)
  401a9a:	c3                   	retq   

0000000000401a9b <setval_349>:
  401a9b:	c7 07 89 d6 38 c0    	movl   $0xc038d689,(%rdi)
  401aa1:	c3                   	retq   

0000000000401aa2 <addval_223>:
  401aa2:	8d 87 96 89 ca c1    	lea    -0x3e35766a(%rdi),%eax
  401aa8:	c3                   	retq   

0000000000401aa9 <setval_144>:
  401aa9:	c7 07 48 a9 e0 c3    	movl   $0xc3e0a948,(%rdi)
  401aaf:	c3                   	retq   

0000000000401ab0 <addval_222>:
  401ab0:	8d 87 89 c1 20 db    	lea    -0x24df3e77(%rdi),%eax
  401ab6:	c3                   	retq   

0000000000401ab7 <getval_466>:
  401ab7:	b8 89 ca 48 c9       	mov    $0xc948ca89,%eax
  401abc:	c3                   	retq   

0000000000401abd <setval_496>:
  401abd:	c7 07 48 8d e0 c3    	movl   $0xc3e08d48,(%rdi)
  401ac3:	c3                   	retq   

0000000000401ac4 <setval_107>:
  401ac4:	c7 07 99 d6 84 d2    	movl   $0xd284d699,(%rdi)
  401aca:	c3                   	retq   

0000000000401acb <setval_251>:
  401acb:	c7 07 a9 d6 20 db    	movl   $0xdb20d6a9,(%rdi)
  401ad1:	c3                   	retq   

0000000000401ad2 <end_farm>:
  401ad2:	b8 01 00 00 00       	mov    $0x1,%eax
  401ad7:	c3                   	retq   

0000000000401ad8 <save_char>:
  401ad8:	8b 05 66 46 20 00    	mov    0x204666(%rip),%eax        # 606144 <gets_cnt>
  401ade:	3d ff 03 00 00       	cmp    $0x3ff,%eax
  401ae3:	7f 49                	jg     401b2e <save_char+0x56>
  401ae5:	8d 14 40             	lea    (%rax,%rax,2),%edx
  401ae8:	89 f9                	mov    %edi,%ecx
  401aea:	c0 e9 04             	shr    $0x4,%cl
  401aed:	83 e1 0f             	and    $0xf,%ecx
  401af0:	0f b6 b1 c0 3a 40 00 	movzbl 0x403ac0(%rcx),%esi
  401af7:	48 63 ca             	movslq %edx,%rcx
  401afa:	40 88 b1 40 55 60 00 	mov    %sil,0x605540(%rcx)
  401b01:	8d 4a 01             	lea    0x1(%rdx),%ecx
  401b04:	83 e7 0f             	and    $0xf,%edi
  401b07:	0f b6 b7 c0 3a 40 00 	movzbl 0x403ac0(%rdi),%esi
  401b0e:	48 63 c9             	movslq %ecx,%rcx
  401b11:	40 88 b1 40 55 60 00 	mov    %sil,0x605540(%rcx)
  401b18:	83 c2 02             	add    $0x2,%edx
  401b1b:	48 63 d2             	movslq %edx,%rdx
  401b1e:	c6 82 40 55 60 00 20 	movb   $0x20,0x605540(%rdx)
  401b25:	83 c0 01             	add    $0x1,%eax
  401b28:	89 05 16 46 20 00    	mov    %eax,0x204616(%rip)        # 606144 <gets_cnt>
  401b2e:	f3 c3                	repz retq 

0000000000401b30 <save_term>:
  401b30:	8b 05 0e 46 20 00    	mov    0x20460e(%rip),%eax        # 606144 <gets_cnt>
  401b36:	8d 04 40             	lea    (%rax,%rax,2),%eax
  401b39:	48 98                	cltq   
  401b3b:	c6 80 40 55 60 00 00 	movb   $0x0,0x605540(%rax)
  401b42:	c3                   	retq   

0000000000401b43 <check_fail>:
  401b43:	48 83 ec 08          	sub    $0x8,%rsp
  401b47:	0f be 15 fa 45 20 00 	movsbl 0x2045fa(%rip),%edx        # 606148 <target_prefix>
  401b4e:	41 b8 40 55 60 00    	mov    $0x605540,%r8d
  401b54:	8b 0d be 39 20 00    	mov    0x2039be(%rip),%ecx        # 605518 <check_level>
  401b5a:	be bb 37 40 00       	mov    $0x4037bb,%esi
  401b5f:	bf 01 00 00 00       	mov    $0x1,%edi
  401b64:	b8 00 00 00 00       	mov    $0x0,%eax
  401b69:	e8 92 f2 ff ff       	callq  400e00 <__printf_chk@plt>
  401b6e:	bf 01 00 00 00       	mov    $0x1,%edi
  401b73:	e8 d8 f2 ff ff       	callq  400e50 <exit@plt>

0000000000401b78 <Gets>:
  401b78:	41 54                	push   %r12
  401b7a:	55                   	push   %rbp
  401b7b:	53                   	push   %rbx
  401b7c:	49 89 fc             	mov    %rdi,%r12
  401b7f:	c7 05 bb 45 20 00 00 	movl   $0x0,0x2045bb(%rip)        # 606144 <gets_cnt>
  401b86:	00 00 00 
  401b89:	48 89 fb             	mov    %rdi,%rbx
  401b8c:	eb 11                	jmp    401b9f <Gets+0x27>
  401b8e:	48 8d 6b 01          	lea    0x1(%rbx),%rbp
  401b92:	88 03                	mov    %al,(%rbx)
  401b94:	0f b6 f8             	movzbl %al,%edi
  401b97:	e8 3c ff ff ff       	callq  401ad8 <save_char>
  401b9c:	48 89 eb             	mov    %rbp,%rbx
  401b9f:	48 8b 3d 6a 39 20 00 	mov    0x20396a(%rip),%rdi        # 605510 <infile>
  401ba6:	e8 25 f2 ff ff       	callq  400dd0 <_IO_getc@plt>
  401bab:	83 f8 ff             	cmp    $0xffffffff,%eax
  401bae:	74 05                	je     401bb5 <Gets+0x3d>
  401bb0:	83 f8 0a             	cmp    $0xa,%eax
  401bb3:	75 d9                	jne    401b8e <Gets+0x16>
  401bb5:	c6 03 00             	movb   $0x0,(%rbx)
  401bb8:	b8 00 00 00 00       	mov    $0x0,%eax
  401bbd:	e8 6e ff ff ff       	callq  401b30 <save_term>
  401bc2:	4c 89 e0             	mov    %r12,%rax
  401bc5:	5b                   	pop    %rbx
  401bc6:	5d                   	pop    %rbp
  401bc7:	41 5c                	pop    %r12
  401bc9:	c3                   	retq   

0000000000401bca <notify_server>:
  401bca:	53                   	push   %rbx
  401bcb:	48 81 ec 10 40 00 00 	sub    $0x4010,%rsp
  401bd2:	64 48 8b 04 25 28 00 	mov    %fs:0x28,%rax
  401bd9:	00 00 
  401bdb:	48 89 84 24 08 40 00 	mov    %rax,0x4008(%rsp)
  401be2:	00 
  401be3:	31 c0                	xor    %eax,%eax
  401be5:	83 3d 3c 39 20 00 00 	cmpl   $0x0,0x20393c(%rip)        # 605528 <is_checker>
  401bec:	0f 85 aa 01 00 00    	jne    401d9c <notify_server+0x1d2>
  401bf2:	89 fb                	mov    %edi,%ebx
  401bf4:	8b 05 4a 45 20 00    	mov    0x20454a(%rip),%eax        # 606144 <gets_cnt>
  401bfa:	83 c0 64             	add    $0x64,%eax
  401bfd:	3d 00 20 00 00       	cmp    $0x2000,%eax
  401c02:	7e 1e                	jle    401c22 <notify_server+0x58>
  401c04:	be f0 38 40 00       	mov    $0x4038f0,%esi
  401c09:	bf 01 00 00 00       	mov    $0x1,%edi
  401c0e:	b8 00 00 00 00       	mov    $0x0,%eax
  401c13:	e8 e8 f1 ff ff       	callq  400e00 <__printf_chk@plt>
  401c18:	bf 01 00 00 00       	mov    $0x1,%edi
  401c1d:	e8 2e f2 ff ff       	callq  400e50 <exit@plt>
  401c22:	0f be 05 1f 45 20 00 	movsbl 0x20451f(%rip),%eax        # 606148 <target_prefix>
  401c29:	83 3d 78 38 20 00 00 	cmpl   $0x0,0x203878(%rip)        # 6054a8 <notify>
  401c30:	74 08                	je     401c3a <notify_server+0x70>
  401c32:	8b 15 e8 38 20 00    	mov    0x2038e8(%rip),%edx        # 605520 <authkey>
  401c38:	eb 05                	jmp    401c3f <notify_server+0x75>
  401c3a:	ba ff ff ff ff       	mov    $0xffffffff,%edx
  401c3f:	85 db                	test   %ebx,%ebx
  401c41:	74 08                	je     401c4b <notify_server+0x81>
  401c43:	41 b9 d1 37 40 00    	mov    $0x4037d1,%r9d
  401c49:	eb 06                	jmp    401c51 <notify_server+0x87>
  401c4b:	41 b9 d6 37 40 00    	mov    $0x4037d6,%r9d
  401c51:	68 40 55 60 00       	pushq  $0x605540
  401c56:	56                   	push   %rsi
  401c57:	50                   	push   %rax
  401c58:	52                   	push   %rdx
  401c59:	44 8b 05 08 35 20 00 	mov    0x203508(%rip),%r8d        # 605168 <target_id>
  401c60:	b9 db 37 40 00       	mov    $0x4037db,%ecx
  401c65:	ba 00 20 00 00       	mov    $0x2000,%edx
  401c6a:	be 01 00 00 00       	mov    $0x1,%esi
  401c6f:	48 8d 7c 24 20       	lea    0x20(%rsp),%rdi
  401c74:	b8 00 00 00 00       	mov    $0x0,%eax
  401c79:	e8 02 f2 ff ff       	callq  400e80 <__sprintf_chk@plt>
  401c7e:	48 83 c4 20          	add    $0x20,%rsp
  401c82:	83 3d 1f 38 20 00 00 	cmpl   $0x0,0x20381f(%rip)        # 6054a8 <notify>
  401c89:	0f 84 81 00 00 00    	je     401d10 <notify_server+0x146>
  401c8f:	85 db                	test   %ebx,%ebx
  401c91:	74 6e                	je     401d01 <notify_server+0x137>
  401c93:	4c 8d 8c 24 00 20 00 	lea    0x2000(%rsp),%r9
  401c9a:	00 
  401c9b:	41 b8 00 00 00 00    	mov    $0x0,%r8d
  401ca1:	48 89 e1             	mov    %rsp,%rcx
  401ca4:	48 8b 15 c5 34 20 00 	mov    0x2034c5(%rip),%rdx        # 605170 <lab>
  401cab:	48 8b 35 c6 34 20 00 	mov    0x2034c6(%rip),%rsi        # 605178 <course>
  401cb2:	48 8b 3d a7 34 20 00 	mov    0x2034a7(%rip),%rdi        # 605160 <user_id>
  401cb9:	e8 ef 10 00 00       	callq  402dad <driver_post>
  401cbe:	85 c0                	test   %eax,%eax
  401cc0:	79 26                	jns    401ce8 <notify_server+0x11e>
  401cc2:	48 8d 94 24 00 20 00 	lea    0x2000(%rsp),%rdx
  401cc9:	00 
  401cca:	be f7 37 40 00       	mov    $0x4037f7,%esi
  401ccf:	bf 01 00 00 00       	mov    $0x1,%edi
  401cd4:	b8 00 00 00 00       	mov    $0x0,%eax
  401cd9:	e8 22 f1 ff ff       	callq  400e00 <__printf_chk@plt>
  401cde:	bf 01 00 00 00       	mov    $0x1,%edi
  401ce3:	e8 68 f1 ff ff       	callq  400e50 <exit@plt>
  401ce8:	bf 20 39 40 00       	mov    $0x403920,%edi
  401ced:	e8 de ef ff ff       	callq  400cd0 <puts@plt>
  401cf2:	bf 03 38 40 00       	mov    $0x403803,%edi
  401cf7:	e8 d4 ef ff ff       	callq  400cd0 <puts@plt>
  401cfc:	e9 9b 00 00 00       	jmpq   401d9c <notify_server+0x1d2>
  401d01:	bf 0d 38 40 00       	mov    $0x40380d,%edi
  401d06:	e8 c5 ef ff ff       	callq  400cd0 <puts@plt>
  401d0b:	e9 8c 00 00 00       	jmpq   401d9c <notify_server+0x1d2>
  401d10:	85 db                	test   %ebx,%ebx
  401d12:	74 07                	je     401d1b <notify_server+0x151>
  401d14:	ba d1 37 40 00       	mov    $0x4037d1,%edx
  401d19:	eb 05                	jmp    401d20 <notify_server+0x156>
  401d1b:	ba d6 37 40 00       	mov    $0x4037d6,%edx
  401d20:	be 58 39 40 00       	mov    $0x403958,%esi
  401d25:	bf 01 00 00 00       	mov    $0x1,%edi
  401d2a:	b8 00 00 00 00       	mov    $0x0,%eax
  401d2f:	e8 cc f0 ff ff       	callq  400e00 <__printf_chk@plt>
  401d34:	48 8b 15 25 34 20 00 	mov    0x203425(%rip),%rdx        # 605160 <user_id>
  401d3b:	be 14 38 40 00       	mov    $0x403814,%esi
  401d40:	bf 01 00 00 00       	mov    $0x1,%edi
  401d45:	b8 00 00 00 00       	mov    $0x0,%eax
  401d4a:	e8 b1 f0 ff ff       	callq  400e00 <__printf_chk@plt>
  401d4f:	48 8b 15 22 34 20 00 	mov    0x203422(%rip),%rdx        # 605178 <course>
  401d56:	be 21 38 40 00       	mov    $0x403821,%esi
  401d5b:	bf 01 00 00 00       	mov    $0x1,%edi
  401d60:	b8 00 00 00 00       	mov    $0x0,%eax
  401d65:	e8 96 f0 ff ff       	callq  400e00 <__printf_chk@plt>
  401d6a:	48 8b 15 ff 33 20 00 	mov    0x2033ff(%rip),%rdx        # 605170 <lab>
  401d71:	be 2d 38 40 00       	mov    $0x40382d,%esi
  401d76:	bf 01 00 00 00       	mov    $0x1,%edi
  401d7b:	b8 00 00 00 00       	mov    $0x0,%eax
  401d80:	e8 7b f0 ff ff       	callq  400e00 <__printf_chk@plt>
  401d85:	48 89 e2             	mov    %rsp,%rdx
  401d88:	be 36 38 40 00       	mov    $0x403836,%esi
  401d8d:	bf 01 00 00 00       	mov    $0x1,%edi
  401d92:	b8 00 00 00 00       	mov    $0x0,%eax
  401d97:	e8 64 f0 ff ff       	callq  400e00 <__printf_chk@plt>
  401d9c:	48 8b 84 24 08 40 00 	mov    0x4008(%rsp),%rax
  401da3:	00 
  401da4:	64 48 33 04 25 28 00 	xor    %fs:0x28,%rax
  401dab:	00 00 
  401dad:	74 05                	je     401db4 <notify_server+0x1ea>
  401daf:	e8 3c ef ff ff       	callq  400cf0 <__stack_chk_fail@plt>
  401db4:	48 81 c4 10 40 00 00 	add    $0x4010,%rsp
  401dbb:	5b                   	pop    %rbx
  401dbc:	c3                   	retq   

0000000000401dbd <validate>:
  401dbd:	53                   	push   %rbx
  401dbe:	89 fb                	mov    %edi,%ebx
  401dc0:	83 3d 61 37 20 00 00 	cmpl   $0x0,0x203761(%rip)        # 605528 <is_checker>
  401dc7:	74 6b                	je     401e34 <validate+0x77>
  401dc9:	39 3d 4d 37 20 00    	cmp    %edi,0x20374d(%rip)        # 60551c <vlevel>
  401dcf:	74 14                	je     401de5 <validate+0x28>
  401dd1:	bf 42 38 40 00       	mov    $0x403842,%edi
  401dd6:	e8 f5 ee ff ff       	callq  400cd0 <puts@plt>
  401ddb:	b8 00 00 00 00       	mov    $0x0,%eax
  401de0:	e8 5e fd ff ff       	callq  401b43 <check_fail>
  401de5:	8b 15 2d 37 20 00    	mov    0x20372d(%rip),%edx        # 605518 <check_level>
  401deb:	39 d7                	cmp    %edx,%edi
  401ded:	74 20                	je     401e0f <validate+0x52>
  401def:	89 f9                	mov    %edi,%ecx
  401df1:	be 80 39 40 00       	mov    $0x403980,%esi
  401df6:	bf 01 00 00 00       	mov    $0x1,%edi
  401dfb:	b8 00 00 00 00       	mov    $0x0,%eax
  401e00:	e8 fb ef ff ff       	callq  400e00 <__printf_chk@plt>
  401e05:	b8 00 00 00 00       	mov    $0x0,%eax
  401e0a:	e8 34 fd ff ff       	callq  401b43 <check_fail>
  401e0f:	0f be 15 32 43 20 00 	movsbl 0x204332(%rip),%edx        # 606148 <target_prefix>
  401e16:	41 b8 40 55 60 00    	mov    $0x605540,%r8d
  401e1c:	89 f9                	mov    %edi,%ecx
  401e1e:	be 60 38 40 00       	mov    $0x403860,%esi
  401e23:	bf 01 00 00 00       	mov    $0x1,%edi
  401e28:	b8 00 00 00 00       	mov    $0x0,%eax
  401e2d:	e8 ce ef ff ff       	callq  400e00 <__printf_chk@plt>
  401e32:	eb 49                	jmp    401e7d <validate+0xc0>
  401e34:	3b 3d e2 36 20 00    	cmp    0x2036e2(%rip),%edi        # 60551c <vlevel>
  401e3a:	74 18                	je     401e54 <validate+0x97>
  401e3c:	bf 42 38 40 00       	mov    $0x403842,%edi
  401e41:	e8 8a ee ff ff       	callq  400cd0 <puts@plt>
  401e46:	89 de                	mov    %ebx,%esi
  401e48:	bf 00 00 00 00       	mov    $0x0,%edi
  401e4d:	e8 78 fd ff ff       	callq  401bca <notify_server>
  401e52:	eb 29                	jmp    401e7d <validate+0xc0>
  401e54:	0f be 0d ed 42 20 00 	movsbl 0x2042ed(%rip),%ecx        # 606148 <target_prefix>
  401e5b:	89 fa                	mov    %edi,%edx
  401e5d:	be a8 39 40 00       	mov    $0x4039a8,%esi
  401e62:	bf 01 00 00 00       	mov    $0x1,%edi
  401e67:	b8 00 00 00 00       	mov    $0x0,%eax
  401e6c:	e8 8f ef ff ff       	callq  400e00 <__printf_chk@plt>
  401e71:	89 de                	mov    %ebx,%esi
  401e73:	bf 01 00 00 00       	mov    $0x1,%edi
  401e78:	e8 4d fd ff ff       	callq  401bca <notify_server>
  401e7d:	5b                   	pop    %rbx
  401e7e:	c3                   	retq   

0000000000401e7f <fail>:
  401e7f:	48 83 ec 08          	sub    $0x8,%rsp
  401e83:	83 3d 9e 36 20 00 00 	cmpl   $0x0,0x20369e(%rip)        # 605528 <is_checker>
  401e8a:	74 0a                	je     401e96 <fail+0x17>
  401e8c:	b8 00 00 00 00       	mov    $0x0,%eax
  401e91:	e8 ad fc ff ff       	callq  401b43 <check_fail>
  401e96:	89 fe                	mov    %edi,%esi
  401e98:	bf 00 00 00 00       	mov    $0x0,%edi
  401e9d:	e8 28 fd ff ff       	callq  401bca <notify_server>
  401ea2:	48 83 c4 08          	add    $0x8,%rsp
  401ea6:	c3                   	retq   

0000000000401ea7 <bushandler>:
  401ea7:	48 83 ec 08          	sub    $0x8,%rsp
  401eab:	83 3d 76 36 20 00 00 	cmpl   $0x0,0x203676(%rip)        # 605528 <is_checker>
  401eb2:	74 14                	je     401ec8 <bushandler+0x21>
  401eb4:	bf 75 38 40 00       	mov    $0x403875,%edi
  401eb9:	e8 12 ee ff ff       	callq  400cd0 <puts@plt>
  401ebe:	b8 00 00 00 00       	mov    $0x0,%eax
  401ec3:	e8 7b fc ff ff       	callq  401b43 <check_fail>
  401ec8:	bf e0 39 40 00       	mov    $0x4039e0,%edi
  401ecd:	e8 fe ed ff ff       	callq  400cd0 <puts@plt>
  401ed2:	bf 7f 38 40 00       	mov    $0x40387f,%edi
  401ed7:	e8 f4 ed ff ff       	callq  400cd0 <puts@plt>
  401edc:	be 00 00 00 00       	mov    $0x0,%esi
  401ee1:	bf 00 00 00 00       	mov    $0x0,%edi
  401ee6:	e8 df fc ff ff       	callq  401bca <notify_server>
  401eeb:	bf 01 00 00 00       	mov    $0x1,%edi
  401ef0:	e8 5b ef ff ff       	callq  400e50 <exit@plt>

0000000000401ef5 <seghandler>:
  401ef5:	48 83 ec 08          	sub    $0x8,%rsp
  401ef9:	83 3d 28 36 20 00 00 	cmpl   $0x0,0x203628(%rip)        # 605528 <is_checker>
  401f00:	74 14                	je     401f16 <seghandler+0x21>
  401f02:	bf 95 38 40 00       	mov    $0x403895,%edi
  401f07:	e8 c4 ed ff ff       	callq  400cd0 <puts@plt>
  401f0c:	b8 00 00 00 00       	mov    $0x0,%eax
  401f11:	e8 2d fc ff ff       	callq  401b43 <check_fail>
  401f16:	bf 00 3a 40 00       	mov    $0x403a00,%edi
  401f1b:	e8 b0 ed ff ff       	callq  400cd0 <puts@plt>
  401f20:	bf 7f 38 40 00       	mov    $0x40387f,%edi
  401f25:	e8 a6 ed ff ff       	callq  400cd0 <puts@plt>
  401f2a:	be 00 00 00 00       	mov    $0x0,%esi
  401f2f:	bf 00 00 00 00       	mov    $0x0,%edi
  401f34:	e8 91 fc ff ff       	callq  401bca <notify_server>
  401f39:	bf 01 00 00 00       	mov    $0x1,%edi
  401f3e:	e8 0d ef ff ff       	callq  400e50 <exit@plt>

0000000000401f43 <illegalhandler>:
  401f43:	48 83 ec 08          	sub    $0x8,%rsp
  401f47:	83 3d da 35 20 00 00 	cmpl   $0x0,0x2035da(%rip)        # 605528 <is_checker>
  401f4e:	74 14                	je     401f64 <illegalhandler+0x21>
  401f50:	bf a8 38 40 00       	mov    $0x4038a8,%edi
  401f55:	e8 76 ed ff ff       	callq  400cd0 <puts@plt>
  401f5a:	b8 00 00 00 00       	mov    $0x0,%eax
  401f5f:	e8 df fb ff ff       	callq  401b43 <check_fail>
  401f64:	bf 28 3a 40 00       	mov    $0x403a28,%edi
  401f69:	e8 62 ed ff ff       	callq  400cd0 <puts@plt>
  401f6e:	bf 7f 38 40 00       	mov    $0x40387f,%edi
  401f73:	e8 58 ed ff ff       	callq  400cd0 <puts@plt>
  401f78:	be 00 00 00 00       	mov    $0x0,%esi
  401f7d:	bf 00 00 00 00       	mov    $0x0,%edi
  401f82:	e8 43 fc ff ff       	callq  401bca <notify_server>
  401f87:	bf 01 00 00 00       	mov    $0x1,%edi
  401f8c:	e8 bf ee ff ff       	callq  400e50 <exit@plt>

0000000000401f91 <sigalrmhandler>:
  401f91:	48 83 ec 08          	sub    $0x8,%rsp
  401f95:	83 3d 8c 35 20 00 00 	cmpl   $0x0,0x20358c(%rip)        # 605528 <is_checker>
  401f9c:	74 14                	je     401fb2 <sigalrmhandler+0x21>
  401f9e:	bf bc 38 40 00       	mov    $0x4038bc,%edi
  401fa3:	e8 28 ed ff ff       	callq  400cd0 <puts@plt>
  401fa8:	b8 00 00 00 00       	mov    $0x0,%eax
  401fad:	e8 91 fb ff ff       	callq  401b43 <check_fail>
  401fb2:	ba 05 00 00 00       	mov    $0x5,%edx
  401fb7:	be 58 3a 40 00       	mov    $0x403a58,%esi
  401fbc:	bf 01 00 00 00       	mov    $0x1,%edi
  401fc1:	b8 00 00 00 00       	mov    $0x0,%eax
  401fc6:	e8 35 ee ff ff       	callq  400e00 <__printf_chk@plt>
  401fcb:	be 00 00 00 00       	mov    $0x0,%esi
  401fd0:	bf 00 00 00 00       	mov    $0x0,%edi
  401fd5:	e8 f0 fb ff ff       	callq  401bca <notify_server>
  401fda:	bf 01 00 00 00       	mov    $0x1,%edi
  401fdf:	e8 6c ee ff ff       	callq  400e50 <exit@plt>

0000000000401fe4 <launch>:
  401fe4:	55                   	push   %rbp
  401fe5:	48 89 e5             	mov    %rsp,%rbp
  401fe8:	48 83 ec 10          	sub    $0x10,%rsp
  401fec:	48 89 fa             	mov    %rdi,%rdx
  401fef:	64 48 8b 04 25 28 00 	mov    %fs:0x28,%rax
  401ff6:	00 00 
  401ff8:	48 89 45 f8          	mov    %rax,-0x8(%rbp)
  401ffc:	31 c0                	xor    %eax,%eax
  401ffe:	48 8d 47 1e          	lea    0x1e(%rdi),%rax
  402002:	48 83 e0 f0          	and    $0xfffffffffffffff0,%rax
  402006:	48 29 c4             	sub    %rax,%rsp
  402009:	48 8d 7c 24 0f       	lea    0xf(%rsp),%rdi
  40200e:	48 83 e7 f0          	and    $0xfffffffffffffff0,%rdi
  402012:	be f4 00 00 00       	mov    $0xf4,%esi
  402017:	e8 f4 ec ff ff       	callq  400d10 <memset@plt>
  40201c:	48 8b 05 9d 34 20 00 	mov    0x20349d(%rip),%rax        # 6054c0 <stdin@@GLIBC_2.2.5>
  402023:	48 39 05 e6 34 20 00 	cmp    %rax,0x2034e6(%rip)        # 605510 <infile>
  40202a:	75 14                	jne    402040 <launch+0x5c>
  40202c:	be c4 38 40 00       	mov    $0x4038c4,%esi
  402031:	bf 01 00 00 00       	mov    $0x1,%edi
  402036:	b8 00 00 00 00       	mov    $0x0,%eax
  40203b:	e8 c0 ed ff ff       	callq  400e00 <__printf_chk@plt>
  402040:	c7 05 d2 34 20 00 00 	movl   $0x0,0x2034d2(%rip)        # 60551c <vlevel>
  402047:	00 00 00 
  40204a:	b8 00 00 00 00       	mov    $0x0,%eax
  40204f:	e8 36 f9 ff ff       	callq  40198a <test>
  402054:	83 3d cd 34 20 00 00 	cmpl   $0x0,0x2034cd(%rip)        # 605528 <is_checker>
  40205b:	74 14                	je     402071 <launch+0x8d>
  40205d:	bf d1 38 40 00       	mov    $0x4038d1,%edi
  402062:	e8 69 ec ff ff       	callq  400cd0 <puts@plt>
  402067:	b8 00 00 00 00       	mov    $0x0,%eax
  40206c:	e8 d2 fa ff ff       	callq  401b43 <check_fail>
  402071:	bf dc 38 40 00       	mov    $0x4038dc,%edi
  402076:	e8 55 ec ff ff       	callq  400cd0 <puts@plt>
  40207b:	48 8b 45 f8          	mov    -0x8(%rbp),%rax
  40207f:	64 48 33 04 25 28 00 	xor    %fs:0x28,%rax
  402086:	00 00 
  402088:	74 05                	je     40208f <launch+0xab>
  40208a:	e8 61 ec ff ff       	callq  400cf0 <__stack_chk_fail@plt>
  40208f:	c9                   	leaveq 
  402090:	c3                   	retq   

0000000000402091 <stable_launch>:
  402091:	53                   	push   %rbx
  402092:	48 89 3d 6f 34 20 00 	mov    %rdi,0x20346f(%rip)        # 605508 <global_offset>
  402099:	41 b9 00 00 00 00    	mov    $0x0,%r9d
  40209f:	41 b8 00 00 00 00    	mov    $0x0,%r8d
  4020a5:	b9 32 01 00 00       	mov    $0x132,%ecx
  4020aa:	ba 07 00 00 00       	mov    $0x7,%edx
  4020af:	be 00 00 10 00       	mov    $0x100000,%esi
  4020b4:	bf 00 60 58 55       	mov    $0x55586000,%edi
  4020b9:	e8 42 ec ff ff       	callq  400d00 <mmap@plt>
  4020be:	48 89 c3             	mov    %rax,%rbx
  4020c1:	48 3d 00 60 58 55    	cmp    $0x55586000,%rax
  4020c7:	74 37                	je     402100 <stable_launch+0x6f>
  4020c9:	be 00 00 10 00       	mov    $0x100000,%esi
  4020ce:	48 89 c7             	mov    %rax,%rdi
  4020d1:	e8 1a ed ff ff       	callq  400df0 <munmap@plt>
  4020d6:	b9 00 60 58 55       	mov    $0x55586000,%ecx
  4020db:	ba 90 3a 40 00       	mov    $0x403a90,%edx
  4020e0:	be 01 00 00 00       	mov    $0x1,%esi
  4020e5:	48 8b 3d f4 33 20 00 	mov    0x2033f4(%rip),%rdi        # 6054e0 <stderr@@GLIBC_2.2.5>
  4020ec:	b8 00 00 00 00       	mov    $0x0,%eax
  4020f1:	e8 7a ed ff ff       	callq  400e70 <__fprintf_chk@plt>
  4020f6:	bf 01 00 00 00       	mov    $0x1,%edi
  4020fb:	e8 50 ed ff ff       	callq  400e50 <exit@plt>
  402100:	48 8d 90 f8 ff 0f 00 	lea    0xffff8(%rax),%rdx
  402107:	48 89 15 42 40 20 00 	mov    %rdx,0x204042(%rip)        # 606150 <stack_top>
  40210e:	48 89 e0             	mov    %rsp,%rax
  402111:	48 89 d4             	mov    %rdx,%rsp
  402114:	48 89 c2             	mov    %rax,%rdx
  402117:	48 89 15 e2 33 20 00 	mov    %rdx,0x2033e2(%rip)        # 605500 <global_save_stack>
  40211e:	48 8b 3d e3 33 20 00 	mov    0x2033e3(%rip),%rdi        # 605508 <global_offset>
  402125:	e8 ba fe ff ff       	callq  401fe4 <launch>
  40212a:	48 8b 05 cf 33 20 00 	mov    0x2033cf(%rip),%rax        # 605500 <global_save_stack>
  402131:	48 89 c4             	mov    %rax,%rsp
  402134:	be 00 00 10 00       	mov    $0x100000,%esi
  402139:	48 89 df             	mov    %rbx,%rdi
  40213c:	e8 af ec ff ff       	callq  400df0 <munmap@plt>
  402141:	5b                   	pop    %rbx
  402142:	c3                   	retq   

0000000000402143 <rio_readinitb>:
  402143:	89 37                	mov    %esi,(%rdi)
  402145:	c7 47 04 00 00 00 00 	movl   $0x0,0x4(%rdi)
  40214c:	48 8d 47 10          	lea    0x10(%rdi),%rax
  402150:	48 89 47 08          	mov    %rax,0x8(%rdi)
  402154:	c3                   	retq   

0000000000402155 <sigalrm_handler>:
  402155:	48 83 ec 08          	sub    $0x8,%rsp
  402159:	b9 00 00 00 00       	mov    $0x0,%ecx
  40215e:	ba d0 3a 40 00       	mov    $0x403ad0,%edx
  402163:	be 01 00 00 00       	mov    $0x1,%esi
  402168:	48 8b 3d 71 33 20 00 	mov    0x203371(%rip),%rdi        # 6054e0 <stderr@@GLIBC_2.2.5>
  40216f:	b8 00 00 00 00       	mov    $0x0,%eax
  402174:	e8 f7 ec ff ff       	callq  400e70 <__fprintf_chk@plt>
  402179:	bf 01 00 00 00       	mov    $0x1,%edi
  40217e:	e8 cd ec ff ff       	callq  400e50 <exit@plt>

0000000000402183 <rio_writen>:
  402183:	41 55                	push   %r13
  402185:	41 54                	push   %r12
  402187:	55                   	push   %rbp
  402188:	53                   	push   %rbx
  402189:	48 83 ec 08          	sub    $0x8,%rsp
  40218d:	41 89 fc             	mov    %edi,%r12d
  402190:	48 89 f5             	mov    %rsi,%rbp
  402193:	49 89 d5             	mov    %rdx,%r13
  402196:	48 89 d3             	mov    %rdx,%rbx
  402199:	eb 28                	jmp    4021c3 <rio_writen+0x40>
  40219b:	48 89 da             	mov    %rbx,%rdx
  40219e:	48 89 ee             	mov    %rbp,%rsi
  4021a1:	44 89 e7             	mov    %r12d,%edi
  4021a4:	e8 37 eb ff ff       	callq  400ce0 <write@plt>
  4021a9:	48 85 c0             	test   %rax,%rax
  4021ac:	7f 0f                	jg     4021bd <rio_writen+0x3a>
  4021ae:	e8 dd ea ff ff       	callq  400c90 <__errno_location@plt>
  4021b3:	83 38 04             	cmpl   $0x4,(%rax)
  4021b6:	75 15                	jne    4021cd <rio_writen+0x4a>
  4021b8:	b8 00 00 00 00       	mov    $0x0,%eax
  4021bd:	48 29 c3             	sub    %rax,%rbx
  4021c0:	48 01 c5             	add    %rax,%rbp
  4021c3:	48 85 db             	test   %rbx,%rbx
  4021c6:	75 d3                	jne    40219b <rio_writen+0x18>
  4021c8:	4c 89 e8             	mov    %r13,%rax
  4021cb:	eb 07                	jmp    4021d4 <rio_writen+0x51>
  4021cd:	48 c7 c0 ff ff ff ff 	mov    $0xffffffffffffffff,%rax
  4021d4:	48 83 c4 08          	add    $0x8,%rsp
  4021d8:	5b                   	pop    %rbx
  4021d9:	5d                   	pop    %rbp
  4021da:	41 5c                	pop    %r12
  4021dc:	41 5d                	pop    %r13
  4021de:	c3                   	retq   

00000000004021df <rio_read>:
  4021df:	41 55                	push   %r13
  4021e1:	41 54                	push   %r12
  4021e3:	55                   	push   %rbp
  4021e4:	53                   	push   %rbx
  4021e5:	48 83 ec 08          	sub    $0x8,%rsp
  4021e9:	48 89 fb             	mov    %rdi,%rbx
  4021ec:	49 89 f5             	mov    %rsi,%r13
  4021ef:	49 89 d4             	mov    %rdx,%r12
  4021f2:	eb 2e                	jmp    402222 <rio_read+0x43>
  4021f4:	48 8d 6b 10          	lea    0x10(%rbx),%rbp
  4021f8:	8b 3b                	mov    (%rbx),%edi
  4021fa:	ba 00 20 00 00       	mov    $0x2000,%edx
  4021ff:	48 89 ee             	mov    %rbp,%rsi
  402202:	e8 39 eb ff ff       	callq  400d40 <read@plt>
  402207:	89 43 04             	mov    %eax,0x4(%rbx)
  40220a:	85 c0                	test   %eax,%eax
  40220c:	79 0c                	jns    40221a <rio_read+0x3b>
  40220e:	e8 7d ea ff ff       	callq  400c90 <__errno_location@plt>
  402213:	83 38 04             	cmpl   $0x4,(%rax)
  402216:	74 0a                	je     402222 <rio_read+0x43>
  402218:	eb 37                	jmp    402251 <rio_read+0x72>
  40221a:	85 c0                	test   %eax,%eax
  40221c:	74 3c                	je     40225a <rio_read+0x7b>
  40221e:	48 89 6b 08          	mov    %rbp,0x8(%rbx)
  402222:	8b 6b 04             	mov    0x4(%rbx),%ebp
  402225:	85 ed                	test   %ebp,%ebp
  402227:	7e cb                	jle    4021f4 <rio_read+0x15>
  402229:	89 e8                	mov    %ebp,%eax
  40222b:	49 39 c4             	cmp    %rax,%r12
  40222e:	77 03                	ja     402233 <rio_read+0x54>
  402230:	44 89 e5             	mov    %r12d,%ebp
  402233:	4c 63 e5             	movslq %ebp,%r12
  402236:	48 8b 73 08          	mov    0x8(%rbx),%rsi
  40223a:	4c 89 e2             	mov    %r12,%rdx
  40223d:	4c 89 ef             	mov    %r13,%rdi
  402240:	e8 5b eb ff ff       	callq  400da0 <memcpy@plt>
  402245:	4c 01 63 08          	add    %r12,0x8(%rbx)
  402249:	29 6b 04             	sub    %ebp,0x4(%rbx)
  40224c:	4c 89 e0             	mov    %r12,%rax
  40224f:	eb 0e                	jmp    40225f <rio_read+0x80>
  402251:	48 c7 c0 ff ff ff ff 	mov    $0xffffffffffffffff,%rax
  402258:	eb 05                	jmp    40225f <rio_read+0x80>
  40225a:	b8 00 00 00 00       	mov    $0x0,%eax
  40225f:	48 83 c4 08          	add    $0x8,%rsp
  402263:	5b                   	pop    %rbx
  402264:	5d                   	pop    %rbp
  402265:	41 5c                	pop    %r12
  402267:	41 5d                	pop    %r13
  402269:	c3                   	retq   

000000000040226a <rio_readlineb>:
  40226a:	41 55                	push   %r13
  40226c:	41 54                	push   %r12
  40226e:	55                   	push   %rbp
  40226f:	53                   	push   %rbx
  402270:	48 83 ec 18          	sub    $0x18,%rsp
  402274:	49 89 fd             	mov    %rdi,%r13
  402277:	48 89 f5             	mov    %rsi,%rbp
  40227a:	49 89 d4             	mov    %rdx,%r12
  40227d:	64 48 8b 04 25 28 00 	mov    %fs:0x28,%rax
  402284:	00 00 
  402286:	48 89 44 24 08       	mov    %rax,0x8(%rsp)
  40228b:	31 c0                	xor    %eax,%eax
  40228d:	bb 01 00 00 00       	mov    $0x1,%ebx
  402292:	eb 3f                	jmp    4022d3 <rio_readlineb+0x69>
  402294:	ba 01 00 00 00       	mov    $0x1,%edx
  402299:	48 8d 74 24 07       	lea    0x7(%rsp),%rsi
  40229e:	4c 89 ef             	mov    %r13,%rdi
  4022a1:	e8 39 ff ff ff       	callq  4021df <rio_read>
  4022a6:	83 f8 01             	cmp    $0x1,%eax
  4022a9:	75 15                	jne    4022c0 <rio_readlineb+0x56>
  4022ab:	48 8d 45 01          	lea    0x1(%rbp),%rax
  4022af:	0f b6 54 24 07       	movzbl 0x7(%rsp),%edx
  4022b4:	88 55 00             	mov    %dl,0x0(%rbp)
  4022b7:	80 7c 24 07 0a       	cmpb   $0xa,0x7(%rsp)
  4022bc:	75 0e                	jne    4022cc <rio_readlineb+0x62>
  4022be:	eb 1a                	jmp    4022da <rio_readlineb+0x70>
  4022c0:	85 c0                	test   %eax,%eax
  4022c2:	75 22                	jne    4022e6 <rio_readlineb+0x7c>
  4022c4:	48 83 fb 01          	cmp    $0x1,%rbx
  4022c8:	75 13                	jne    4022dd <rio_readlineb+0x73>
  4022ca:	eb 23                	jmp    4022ef <rio_readlineb+0x85>
  4022cc:	48 83 c3 01          	add    $0x1,%rbx
  4022d0:	48 89 c5             	mov    %rax,%rbp
  4022d3:	4c 39 e3             	cmp    %r12,%rbx
  4022d6:	72 bc                	jb     402294 <rio_readlineb+0x2a>
  4022d8:	eb 03                	jmp    4022dd <rio_readlineb+0x73>
  4022da:	48 89 c5             	mov    %rax,%rbp
  4022dd:	c6 45 00 00          	movb   $0x0,0x0(%rbp)
  4022e1:	48 89 d8             	mov    %rbx,%rax
  4022e4:	eb 0e                	jmp    4022f4 <rio_readlineb+0x8a>
  4022e6:	48 c7 c0 ff ff ff ff 	mov    $0xffffffffffffffff,%rax
  4022ed:	eb 05                	jmp    4022f4 <rio_readlineb+0x8a>
  4022ef:	b8 00 00 00 00       	mov    $0x0,%eax
  4022f4:	48 8b 4c 24 08       	mov    0x8(%rsp),%rcx
  4022f9:	64 48 33 0c 25 28 00 	xor    %fs:0x28,%rcx
  402300:	00 00 
  402302:	74 05                	je     402309 <rio_readlineb+0x9f>
  402304:	e8 e7 e9 ff ff       	callq  400cf0 <__stack_chk_fail@plt>
  402309:	48 83 c4 18          	add    $0x18,%rsp
  40230d:	5b                   	pop    %rbx
  40230e:	5d                   	pop    %rbp
  40230f:	41 5c                	pop    %r12
  402311:	41 5d                	pop    %r13
  402313:	c3                   	retq   

0000000000402314 <urlencode>:
  402314:	41 54                	push   %r12
  402316:	55                   	push   %rbp
  402317:	53                   	push   %rbx
  402318:	48 83 ec 10          	sub    $0x10,%rsp
  40231c:	48 89 fb             	mov    %rdi,%rbx
  40231f:	48 89 f5             	mov    %rsi,%rbp
  402322:	64 48 8b 04 25 28 00 	mov    %fs:0x28,%rax
  402329:	00 00 
  40232b:	48 89 44 24 08       	mov    %rax,0x8(%rsp)
  402330:	31 c0                	xor    %eax,%eax
  402332:	48 c7 c1 ff ff ff ff 	mov    $0xffffffffffffffff,%rcx
  402339:	f2 ae                	repnz scas %es:(%rdi),%al
  40233b:	48 f7 d1             	not    %rcx
  40233e:	8d 41 ff             	lea    -0x1(%rcx),%eax
  402341:	e9 aa 00 00 00       	jmpq   4023f0 <urlencode+0xdc>
  402346:	44 0f b6 03          	movzbl (%rbx),%r8d
  40234a:	41 80 f8 2a          	cmp    $0x2a,%r8b
  40234e:	0f 94 c2             	sete   %dl
  402351:	41 80 f8 2d          	cmp    $0x2d,%r8b
  402355:	0f 94 c0             	sete   %al
  402358:	08 c2                	or     %al,%dl
  40235a:	75 24                	jne    402380 <urlencode+0x6c>
  40235c:	41 80 f8 2e          	cmp    $0x2e,%r8b
  402360:	74 1e                	je     402380 <urlencode+0x6c>
  402362:	41 80 f8 5f          	cmp    $0x5f,%r8b
  402366:	74 18                	je     402380 <urlencode+0x6c>
  402368:	41 8d 40 d0          	lea    -0x30(%r8),%eax
  40236c:	3c 09                	cmp    $0x9,%al
  40236e:	76 10                	jbe    402380 <urlencode+0x6c>
  402370:	41 8d 40 bf          	lea    -0x41(%r8),%eax
  402374:	3c 19                	cmp    $0x19,%al
  402376:	76 08                	jbe    402380 <urlencode+0x6c>
  402378:	41 8d 40 9f          	lea    -0x61(%r8),%eax
  40237c:	3c 19                	cmp    $0x19,%al
  40237e:	77 0a                	ja     40238a <urlencode+0x76>
  402380:	44 88 45 00          	mov    %r8b,0x0(%rbp)
  402384:	48 8d 6d 01          	lea    0x1(%rbp),%rbp
  402388:	eb 5f                	jmp    4023e9 <urlencode+0xd5>
  40238a:	41 80 f8 20          	cmp    $0x20,%r8b
  40238e:	75 0a                	jne    40239a <urlencode+0x86>
  402390:	c6 45 00 2b          	movb   $0x2b,0x0(%rbp)
  402394:	48 8d 6d 01          	lea    0x1(%rbp),%rbp
  402398:	eb 4f                	jmp    4023e9 <urlencode+0xd5>
  40239a:	41 8d 40 e0          	lea    -0x20(%r8),%eax
  40239e:	3c 5f                	cmp    $0x5f,%al
  4023a0:	0f 96 c2             	setbe  %dl
  4023a3:	41 80 f8 09          	cmp    $0x9,%r8b
  4023a7:	0f 94 c0             	sete   %al
  4023aa:	08 c2                	or     %al,%dl
  4023ac:	74 50                	je     4023fe <urlencode+0xea>
  4023ae:	45 0f b6 c0          	movzbl %r8b,%r8d
  4023b2:	b9 68 3b 40 00       	mov    $0x403b68,%ecx
  4023b7:	ba 08 00 00 00       	mov    $0x8,%edx
  4023bc:	be 01 00 00 00       	mov    $0x1,%esi
  4023c1:	48 89 e7             	mov    %rsp,%rdi
  4023c4:	b8 00 00 00 00       	mov    $0x0,%eax
  4023c9:	e8 b2 ea ff ff       	callq  400e80 <__sprintf_chk@plt>
  4023ce:	0f b6 04 24          	movzbl (%rsp),%eax
  4023d2:	88 45 00             	mov    %al,0x0(%rbp)
  4023d5:	0f b6 44 24 01       	movzbl 0x1(%rsp),%eax
  4023da:	88 45 01             	mov    %al,0x1(%rbp)
  4023dd:	0f b6 44 24 02       	movzbl 0x2(%rsp),%eax
  4023e2:	88 45 02             	mov    %al,0x2(%rbp)
  4023e5:	48 8d 6d 03          	lea    0x3(%rbp),%rbp
  4023e9:	48 83 c3 01          	add    $0x1,%rbx
  4023ed:	44 89 e0             	mov    %r12d,%eax
  4023f0:	44 8d 60 ff          	lea    -0x1(%rax),%r12d
  4023f4:	85 c0                	test   %eax,%eax
  4023f6:	0f 85 4a ff ff ff    	jne    402346 <urlencode+0x32>
  4023fc:	eb 05                	jmp    402403 <urlencode+0xef>
  4023fe:	b8 ff ff ff ff       	mov    $0xffffffff,%eax
  402403:	48 8b 74 24 08       	mov    0x8(%rsp),%rsi
  402408:	64 48 33 34 25 28 00 	xor    %fs:0x28,%rsi
  40240f:	00 00 
  402411:	74 05                	je     402418 <urlencode+0x104>
  402413:	e8 d8 e8 ff ff       	callq  400cf0 <__stack_chk_fail@plt>
  402418:	48 83 c4 10          	add    $0x10,%rsp
  40241c:	5b                   	pop    %rbx
  40241d:	5d                   	pop    %rbp
  40241e:	41 5c                	pop    %r12
  402420:	c3                   	retq   

0000000000402421 <submitr>:
  402421:	41 57                	push   %r15
  402423:	41 56                	push   %r14
  402425:	41 55                	push   %r13
  402427:	41 54                	push   %r12
  402429:	55                   	push   %rbp
  40242a:	53                   	push   %rbx
  40242b:	48 81 ec 58 a0 00 00 	sub    $0xa058,%rsp
  402432:	49 89 fc             	mov    %rdi,%r12
  402435:	89 74 24 04          	mov    %esi,0x4(%rsp)
  402439:	49 89 d7             	mov    %rdx,%r15
  40243c:	49 89 ce             	mov    %rcx,%r14
  40243f:	4c 89 44 24 08       	mov    %r8,0x8(%rsp)
  402444:	4d 89 cd             	mov    %r9,%r13
  402447:	48 8b 9c 24 90 a0 00 	mov    0xa090(%rsp),%rbx
  40244e:	00 
  40244f:	64 48 8b 04 25 28 00 	mov    %fs:0x28,%rax
  402456:	00 00 
  402458:	48 89 84 24 48 a0 00 	mov    %rax,0xa048(%rsp)
  40245f:	00 
  402460:	31 c0                	xor    %eax,%eax
  402462:	c7 44 24 1c 00 00 00 	movl   $0x0,0x1c(%rsp)
  402469:	00 
  40246a:	ba 00 00 00 00       	mov    $0x0,%edx
  40246f:	be 01 00 00 00       	mov    $0x1,%esi
  402474:	bf 02 00 00 00       	mov    $0x2,%edi
  402479:	e8 12 ea ff ff       	callq  400e90 <socket@plt>
  40247e:	85 c0                	test   %eax,%eax
  402480:	79 4e                	jns    4024d0 <submitr+0xaf>
  402482:	48 b8 45 72 72 6f 72 	movabs $0x43203a726f727245,%rax
  402489:	3a 20 43 
  40248c:	48 89 03             	mov    %rax,(%rbx)
  40248f:	48 b8 6c 69 65 6e 74 	movabs $0x6e7520746e65696c,%rax
  402496:	20 75 6e 
  402499:	48 89 43 08          	mov    %rax,0x8(%rbx)
  40249d:	48 b8 61 62 6c 65 20 	movabs $0x206f7420656c6261,%rax
  4024a4:	74 6f 20 
  4024a7:	48 89 43 10          	mov    %rax,0x10(%rbx)
  4024ab:	48 b8 63 72 65 61 74 	movabs $0x7320657461657263,%rax
  4024b2:	65 20 73 
  4024b5:	48 89 43 18          	mov    %rax,0x18(%rbx)
  4024b9:	c7 43 20 6f 63 6b 65 	movl   $0x656b636f,0x20(%rbx)
  4024c0:	66 c7 43 24 74 00    	movw   $0x74,0x24(%rbx)
  4024c6:	b8 ff ff ff ff       	mov    $0xffffffff,%eax
  4024cb:	e9 97 06 00 00       	jmpq   402b67 <submitr+0x746>
  4024d0:	89 c5                	mov    %eax,%ebp
  4024d2:	4c 89 e7             	mov    %r12,%rdi
  4024d5:	e8 96 e8 ff ff       	callq  400d70 <gethostbyname@plt>
  4024da:	48 85 c0             	test   %rax,%rax
  4024dd:	75 67                	jne    402546 <submitr+0x125>
  4024df:	48 b8 45 72 72 6f 72 	movabs $0x44203a726f727245,%rax
  4024e6:	3a 20 44 
  4024e9:	48 89 03             	mov    %rax,(%rbx)
  4024ec:	48 b8 4e 53 20 69 73 	movabs $0x6e7520736920534e,%rax
  4024f3:	20 75 6e 
  4024f6:	48 89 43 08          	mov    %rax,0x8(%rbx)
  4024fa:	48 b8 61 62 6c 65 20 	movabs $0x206f7420656c6261,%rax
  402501:	74 6f 20 
  402504:	48 89 43 10          	mov    %rax,0x10(%rbx)
  402508:	48 b8 72 65 73 6f 6c 	movabs $0x2065766c6f736572,%rax
  40250f:	76 65 20 
  402512:	48 89 43 18          	mov    %rax,0x18(%rbx)
  402516:	48 b8 73 65 72 76 65 	movabs $0x6120726576726573,%rax
  40251d:	72 20 61 
  402520:	48 89 43 20          	mov    %rax,0x20(%rbx)
  402524:	c7 43 28 64 64 72 65 	movl   $0x65726464,0x28(%rbx)
  40252b:	66 c7 43 2c 73 73    	movw   $0x7373,0x2c(%rbx)
  402531:	c6 43 2e 00          	movb   $0x0,0x2e(%rbx)
  402535:	89 ef                	mov    %ebp,%edi
  402537:	e8 f4 e7 ff ff       	callq  400d30 <close@plt>
  40253c:	b8 ff ff ff ff       	mov    $0xffffffff,%eax
  402541:	e9 21 06 00 00       	jmpq   402b67 <submitr+0x746>
  402546:	48 c7 44 24 20 00 00 	movq   $0x0,0x20(%rsp)
  40254d:	00 00 
  40254f:	48 c7 44 24 28 00 00 	movq   $0x0,0x28(%rsp)
  402556:	00 00 
  402558:	66 c7 44 24 20 02 00 	movw   $0x2,0x20(%rsp)
  40255f:	48 63 50 14          	movslq 0x14(%rax),%rdx
  402563:	48 8b 40 18          	mov    0x18(%rax),%rax
  402567:	48 8b 30             	mov    (%rax),%rsi
  40256a:	48 8d 7c 24 24       	lea    0x24(%rsp),%rdi
  40256f:	b9 0c 00 00 00       	mov    $0xc,%ecx
  402574:	e8 07 e8 ff ff       	callq  400d80 <__memmove_chk@plt>
  402579:	0f b7 44 24 04       	movzwl 0x4(%rsp),%eax
  40257e:	66 c1 c8 08          	ror    $0x8,%ax
  402582:	66 89 44 24 22       	mov    %ax,0x22(%rsp)
  402587:	ba 10 00 00 00       	mov    $0x10,%edx
  40258c:	48 8d 74 24 20       	lea    0x20(%rsp),%rsi
  402591:	89 ef                	mov    %ebp,%edi
  402593:	e8 c8 e8 ff ff       	callq  400e60 <connect@plt>
  402598:	85 c0                	test   %eax,%eax
  40259a:	79 59                	jns    4025f5 <submitr+0x1d4>
  40259c:	48 b8 45 72 72 6f 72 	movabs $0x55203a726f727245,%rax
  4025a3:	3a 20 55 
  4025a6:	48 89 03             	mov    %rax,(%rbx)
  4025a9:	48 b8 6e 61 62 6c 65 	movabs $0x6f7420656c62616e,%rax
  4025b0:	20 74 6f 
  4025b3:	48 89 43 08          	mov    %rax,0x8(%rbx)
  4025b7:	48 b8 20 63 6f 6e 6e 	movabs $0x7463656e6e6f6320,%rax
  4025be:	65 63 74 
  4025c1:	48 89 43 10          	mov    %rax,0x10(%rbx)
  4025c5:	48 b8 20 74 6f 20 74 	movabs $0x20656874206f7420,%rax
  4025cc:	68 65 20 
  4025cf:	48 89 43 18          	mov    %rax,0x18(%rbx)
  4025d3:	c7 43 20 73 65 72 76 	movl   $0x76726573,0x20(%rbx)
  4025da:	66 c7 43 24 65 72    	movw   $0x7265,0x24(%rbx)
  4025e0:	c6 43 26 00          	movb   $0x0,0x26(%rbx)
  4025e4:	89 ef                	mov    %ebp,%edi
  4025e6:	e8 45 e7 ff ff       	callq  400d30 <close@plt>
  4025eb:	b8 ff ff ff ff       	mov    $0xffffffff,%eax
  4025f0:	e9 72 05 00 00       	jmpq   402b67 <submitr+0x746>
  4025f5:	48 c7 c6 ff ff ff ff 	mov    $0xffffffffffffffff,%rsi
  4025fc:	b8 00 00 00 00       	mov    $0x0,%eax
  402601:	48 89 f1             	mov    %rsi,%rcx
  402604:	4c 89 ef             	mov    %r13,%rdi
  402607:	f2 ae                	repnz scas %es:(%rdi),%al
  402609:	48 f7 d1             	not    %rcx
  40260c:	48 89 ca             	mov    %rcx,%rdx
  40260f:	48 89 f1             	mov    %rsi,%rcx
  402612:	4c 89 ff             	mov    %r15,%rdi
  402615:	f2 ae                	repnz scas %es:(%rdi),%al
  402617:	48 f7 d1             	not    %rcx
  40261a:	49 89 c8             	mov    %rcx,%r8
  40261d:	48 89 f1             	mov    %rsi,%rcx
  402620:	4c 89 f7             	mov    %r14,%rdi
  402623:	f2 ae                	repnz scas %es:(%rdi),%al
  402625:	48 f7 d1             	not    %rcx
  402628:	4d 8d 44 08 fe       	lea    -0x2(%r8,%rcx,1),%r8
  40262d:	48 89 f1             	mov    %rsi,%rcx
  402630:	48 8b 7c 24 08       	mov    0x8(%rsp),%rdi
  402635:	f2 ae                	repnz scas %es:(%rdi),%al
  402637:	48 89 c8             	mov    %rcx,%rax
  40263a:	48 f7 d0             	not    %rax
  40263d:	49 8d 4c 00 ff       	lea    -0x1(%r8,%rax,1),%rcx
  402642:	48 8d 44 52 fd       	lea    -0x3(%rdx,%rdx,2),%rax
  402647:	48 8d 84 01 80 00 00 	lea    0x80(%rcx,%rax,1),%rax
  40264e:	00 
  40264f:	48 3d 00 20 00 00    	cmp    $0x2000,%rax
  402655:	76 72                	jbe    4026c9 <submitr+0x2a8>
  402657:	48 b8 45 72 72 6f 72 	movabs $0x52203a726f727245,%rax
  40265e:	3a 20 52 
  402661:	48 89 03             	mov    %rax,(%rbx)
  402664:	48 b8 65 73 75 6c 74 	movabs $0x747320746c757365,%rax
  40266b:	20 73 74 
  40266e:	48 89 43 08          	mov    %rax,0x8(%rbx)
  402672:	48 b8 72 69 6e 67 20 	movabs $0x6f6f7420676e6972,%rax
  402679:	74 6f 6f 
  40267c:	48 89 43 10          	mov    %rax,0x10(%rbx)
  402680:	48 b8 20 6c 61 72 67 	movabs $0x202e656772616c20,%rax
  402687:	65 2e 20 
  40268a:	48 89 43 18          	mov    %rax,0x18(%rbx)
  40268e:	48 b8 49 6e 63 72 65 	movabs $0x6573616572636e49,%rax
  402695:	61 73 65 
  402698:	48 89 43 20          	mov    %rax,0x20(%rbx)
  40269c:	48 b8 20 53 55 42 4d 	movabs $0x5254494d42555320,%rax
  4026a3:	49 54 52 
  4026a6:	48 89 43 28          	mov    %rax,0x28(%rbx)
  4026aa:	48 b8 5f 4d 41 58 42 	movabs $0x46554258414d5f,%rax
  4026b1:	55 46 00 
  4026b4:	48 89 43 30          	mov    %rax,0x30(%rbx)
  4026b8:	89 ef                	mov    %ebp,%edi
  4026ba:	e8 71 e6 ff ff       	callq  400d30 <close@plt>
  4026bf:	b8 ff ff ff ff       	mov    $0xffffffff,%eax
  4026c4:	e9 9e 04 00 00       	jmpq   402b67 <submitr+0x746>
  4026c9:	48 8d b4 24 40 40 00 	lea    0x4040(%rsp),%rsi
  4026d0:	00 
  4026d1:	b9 00 04 00 00       	mov    $0x400,%ecx
  4026d6:	b8 00 00 00 00       	mov    $0x0,%eax
  4026db:	48 89 f7             	mov    %rsi,%rdi
  4026de:	f3 48 ab             	rep stos %rax,%es:(%rdi)
  4026e1:	4c 89 ef             	mov    %r13,%rdi
  4026e4:	e8 2b fc ff ff       	callq  402314 <urlencode>
  4026e9:	85 c0                	test   %eax,%eax
  4026eb:	0f 89 8a 00 00 00    	jns    40277b <submitr+0x35a>
  4026f1:	48 b8 45 72 72 6f 72 	movabs $0x52203a726f727245,%rax
  4026f8:	3a 20 52 
  4026fb:	48 89 03             	mov    %rax,(%rbx)
  4026fe:	48 b8 65 73 75 6c 74 	movabs $0x747320746c757365,%rax
  402705:	20 73 74 
  402708:	48 89 43 08          	mov    %rax,0x8(%rbx)
  40270c:	48 b8 72 69 6e 67 20 	movabs $0x6e6f6320676e6972,%rax
  402713:	63 6f 6e 
  402716:	48 89 43 10          	mov    %rax,0x10(%rbx)
  40271a:	48 b8 74 61 69 6e 73 	movabs $0x6e6120736e696174,%rax
  402721:	20 61 6e 
  402724:	48 89 43 18          	mov    %rax,0x18(%rbx)
  402728:	48 b8 20 69 6c 6c 65 	movabs $0x6c6167656c6c6920,%rax
  40272f:	67 61 6c 
  402732:	48 89 43 20          	mov    %rax,0x20(%rbx)
  402736:	48 b8 20 6f 72 20 75 	movabs $0x72706e7520726f20,%rax
  40273d:	6e 70 72 
  402740:	48 89 43 28          	mov    %rax,0x28(%rbx)
  402744:	48 b8 69 6e 74 61 62 	movabs $0x20656c6261746e69,%rax
  40274b:	6c 65 20 
  40274e:	48 89 43 30          	mov    %rax,0x30(%rbx)
  402752:	48 b8 63 68 61 72 61 	movabs $0x6574636172616863,%rax
  402759:	63 74 65 
  40275c:	48 89 43 38          	mov    %rax,0x38(%rbx)
  402760:	66 c7 43 40 72 2e    	movw   $0x2e72,0x40(%rbx)
  402766:	c6 43 42 00          	movb   $0x0,0x42(%rbx)
  40276a:	89 ef                	mov    %ebp,%edi
  40276c:	e8 bf e5 ff ff       	callq  400d30 <close@plt>
  402771:	b8 ff ff ff ff       	mov    $0xffffffff,%eax
  402776:	e9 ec 03 00 00       	jmpq   402b67 <submitr+0x746>
  40277b:	4c 8d ac 24 40 20 00 	lea    0x2040(%rsp),%r13
  402782:	00 
  402783:	41 54                	push   %r12
  402785:	48 8d 84 24 48 40 00 	lea    0x4048(%rsp),%rax
  40278c:	00 
  40278d:	50                   	push   %rax
  40278e:	4d 89 f9             	mov    %r15,%r9
  402791:	4d 89 f0             	mov    %r14,%r8
  402794:	b9 f8 3a 40 00       	mov    $0x403af8,%ecx
  402799:	ba 00 20 00 00       	mov    $0x2000,%edx
  40279e:	be 01 00 00 00       	mov    $0x1,%esi
  4027a3:	4c 89 ef             	mov    %r13,%rdi
  4027a6:	b8 00 00 00 00       	mov    $0x0,%eax
  4027ab:	e8 d0 e6 ff ff       	callq  400e80 <__sprintf_chk@plt>
  4027b0:	b8 00 00 00 00       	mov    $0x0,%eax
  4027b5:	48 c7 c1 ff ff ff ff 	mov    $0xffffffffffffffff,%rcx
  4027bc:	4c 89 ef             	mov    %r13,%rdi
  4027bf:	f2 ae                	repnz scas %es:(%rdi),%al
  4027c1:	48 f7 d1             	not    %rcx
  4027c4:	48 8d 51 ff          	lea    -0x1(%rcx),%rdx
  4027c8:	4c 89 ee             	mov    %r13,%rsi
  4027cb:	89 ef                	mov    %ebp,%edi
  4027cd:	e8 b1 f9 ff ff       	callq  402183 <rio_writen>
  4027d2:	48 83 c4 10          	add    $0x10,%rsp
  4027d6:	48 85 c0             	test   %rax,%rax
  4027d9:	79 6e                	jns    402849 <submitr+0x428>
  4027db:	48 b8 45 72 72 6f 72 	movabs $0x43203a726f727245,%rax
  4027e2:	3a 20 43 
  4027e5:	48 89 03             	mov    %rax,(%rbx)
  4027e8:	48 b8 6c 69 65 6e 74 	movabs $0x6e7520746e65696c,%rax
  4027ef:	20 75 6e 
  4027f2:	48 89 43 08          	mov    %rax,0x8(%rbx)
  4027f6:	48 b8 61 62 6c 65 20 	movabs $0x206f7420656c6261,%rax
  4027fd:	74 6f 20 
  402800:	48 89 43 10          	mov    %rax,0x10(%rbx)
  402804:	48 b8 77 72 69 74 65 	movabs $0x6f74206574697277,%rax
  40280b:	20 74 6f 
  40280e:	48 89 43 18          	mov    %rax,0x18(%rbx)
  402812:	48 b8 20 74 68 65 20 	movabs $0x7365722065687420,%rax
  402819:	72 65 73 
  40281c:	48 89 43 20          	mov    %rax,0x20(%rbx)
  402820:	48 b8 75 6c 74 20 73 	movabs $0x7672657320746c75,%rax
  402827:	65 72 76 
  40282a:	48 89 43 28          	mov    %rax,0x28(%rbx)
  40282e:	66 c7 43 30 65 72    	movw   $0x7265,0x30(%rbx)
  402834:	c6 43 32 00          	movb   $0x0,0x32(%rbx)
  402838:	89 ef                	mov    %ebp,%edi
  40283a:	e8 f1 e4 ff ff       	callq  400d30 <close@plt>
  40283f:	b8 ff ff ff ff       	mov    $0xffffffff,%eax
  402844:	e9 1e 03 00 00       	jmpq   402b67 <submitr+0x746>
  402849:	89 ee                	mov    %ebp,%esi
  40284b:	48 8d 7c 24 30       	lea    0x30(%rsp),%rdi
  402850:	e8 ee f8 ff ff       	callq  402143 <rio_readinitb>
  402855:	ba 00 20 00 00       	mov    $0x2000,%edx
  40285a:	48 8d b4 24 40 20 00 	lea    0x2040(%rsp),%rsi
  402861:	00 
  402862:	48 8d 7c 24 30       	lea    0x30(%rsp),%rdi
  402867:	e8 fe f9 ff ff       	callq  40226a <rio_readlineb>
  40286c:	48 85 c0             	test   %rax,%rax
  40286f:	7f 7d                	jg     4028ee <submitr+0x4cd>
  402871:	48 b8 45 72 72 6f 72 	movabs $0x43203a726f727245,%rax
  402878:	3a 20 43 
  40287b:	48 89 03             	mov    %rax,(%rbx)
  40287e:	48 b8 6c 69 65 6e 74 	movabs $0x6e7520746e65696c,%rax
  402885:	20 75 6e 
  402888:	48 89 43 08          	mov    %rax,0x8(%rbx)
  40288c:	48 b8 61 62 6c 65 20 	movabs $0x206f7420656c6261,%rax
  402893:	74 6f 20 
  402896:	48 89 43 10          	mov    %rax,0x10(%rbx)
  40289a:	48 b8 72 65 61 64 20 	movabs $0x7269662064616572,%rax
  4028a1:	66 69 72 
  4028a4:	48 89 43 18          	mov    %rax,0x18(%rbx)
  4028a8:	48 b8 73 74 20 68 65 	movabs $0x6564616568207473,%rax
  4028af:	61 64 65 
  4028b2:	48 89 43 20          	mov    %rax,0x20(%rbx)
  4028b6:	48 b8 72 20 66 72 6f 	movabs $0x72206d6f72662072,%rax
  4028bd:	6d 20 72 
  4028c0:	48 89 43 28          	mov    %rax,0x28(%rbx)
  4028c4:	48 b8 65 73 75 6c 74 	movabs $0x657320746c757365,%rax
  4028cb:	20 73 65 
  4028ce:	48 89 43 30          	mov    %rax,0x30(%rbx)
  4028d2:	c7 43 38 72 76 65 72 	movl   $0x72657672,0x38(%rbx)
  4028d9:	c6 43 3c 00          	movb   $0x0,0x3c(%rbx)
  4028dd:	89 ef                	mov    %ebp,%edi
  4028df:	e8 4c e4 ff ff       	callq  400d30 <close@plt>
  4028e4:	b8 ff ff ff ff       	mov    $0xffffffff,%eax
  4028e9:	e9 79 02 00 00       	jmpq   402b67 <submitr+0x746>
  4028ee:	4c 8d 84 24 40 80 00 	lea    0x8040(%rsp),%r8
  4028f5:	00 
  4028f6:	48 8d 4c 24 1c       	lea    0x1c(%rsp),%rcx
  4028fb:	48 8d 94 24 40 60 00 	lea    0x6040(%rsp),%rdx
  402902:	00 
  402903:	be 6f 3b 40 00       	mov    $0x403b6f,%esi
  402908:	48 8d bc 24 40 20 00 	lea    0x2040(%rsp),%rdi
  40290f:	00 
  402910:	b8 00 00 00 00       	mov    $0x0,%eax
  402915:	e8 c6 e4 ff ff       	callq  400de0 <__isoc99_sscanf@plt>
  40291a:	e9 95 00 00 00       	jmpq   4029b4 <submitr+0x593>
  40291f:	ba 00 20 00 00       	mov    $0x2000,%edx
  402924:	48 8d b4 24 40 20 00 	lea    0x2040(%rsp),%rsi
  40292b:	00 
  40292c:	48 8d 7c 24 30       	lea    0x30(%rsp),%rdi
  402931:	e8 34 f9 ff ff       	callq  40226a <rio_readlineb>
  402936:	48 85 c0             	test   %rax,%rax
  402939:	7f 79                	jg     4029b4 <submitr+0x593>
  40293b:	48 b8 45 72 72 6f 72 	movabs $0x43203a726f727245,%rax
  402942:	3a 20 43 
  402945:	48 89 03             	mov    %rax,(%rbx)
  402948:	48 b8 6c 69 65 6e 74 	movabs $0x6e7520746e65696c,%rax
  40294f:	20 75 6e 
  402952:	48 89 43 08          	mov    %rax,0x8(%rbx)
  402956:	48 b8 61 62 6c 65 20 	movabs $0x206f7420656c6261,%rax
  40295d:	74 6f 20 
  402960:	48 89 43 10          	mov    %rax,0x10(%rbx)
  402964:	48 b8 72 65 61 64 20 	movabs $0x6165682064616572,%rax
  40296b:	68 65 61 
  40296e:	48 89 43 18          	mov    %rax,0x18(%rbx)
  402972:	48 b8 64 65 72 73 20 	movabs $0x6f72662073726564,%rax
  402979:	66 72 6f 
  40297c:	48 89 43 20          	mov    %rax,0x20(%rbx)
  402980:	48 b8 6d 20 74 68 65 	movabs $0x657220656874206d,%rax
  402987:	20 72 65 
  40298a:	48 89 43 28          	mov    %rax,0x28(%rbx)
  40298e:	48 b8 73 75 6c 74 20 	movabs $0x72657320746c7573,%rax
  402995:	73 65 72 
  402998:	48 89 43 30          	mov    %rax,0x30(%rbx)
  40299c:	c7 43 38 76 65 72 00 	movl   $0x726576,0x38(%rbx)
  4029a3:	89 ef                	mov    %ebp,%edi
  4029a5:	e8 86 e3 ff ff       	callq  400d30 <close@plt>
  4029aa:	b8 ff ff ff ff       	mov    $0xffffffff,%eax
  4029af:	e9 b3 01 00 00       	jmpq   402b67 <submitr+0x746>
  4029b4:	0f b6 94 24 40 20 00 	movzbl 0x2040(%rsp),%edx
  4029bb:	00 
  4029bc:	b8 0d 00 00 00       	mov    $0xd,%eax
  4029c1:	29 d0                	sub    %edx,%eax
  4029c3:	75 1b                	jne    4029e0 <submitr+0x5bf>
  4029c5:	0f b6 94 24 41 20 00 	movzbl 0x2041(%rsp),%edx
  4029cc:	00 
  4029cd:	b8 0a 00 00 00       	mov    $0xa,%eax
  4029d2:	29 d0                	sub    %edx,%eax
  4029d4:	75 0a                	jne    4029e0 <submitr+0x5bf>
  4029d6:	0f b6 84 24 42 20 00 	movzbl 0x2042(%rsp),%eax
  4029dd:	00 
  4029de:	f7 d8                	neg    %eax
  4029e0:	85 c0                	test   %eax,%eax
  4029e2:	0f 85 37 ff ff ff    	jne    40291f <submitr+0x4fe>
  4029e8:	ba 00 20 00 00       	mov    $0x2000,%edx
  4029ed:	48 8d b4 24 40 20 00 	lea    0x2040(%rsp),%rsi
  4029f4:	00 
  4029f5:	48 8d 7c 24 30       	lea    0x30(%rsp),%rdi
  4029fa:	e8 6b f8 ff ff       	callq  40226a <rio_readlineb>
  4029ff:	48 85 c0             	test   %rax,%rax
  402a02:	0f 8f 83 00 00 00    	jg     402a8b <submitr+0x66a>
  402a08:	48 b8 45 72 72 6f 72 	movabs $0x43203a726f727245,%rax
  402a0f:	3a 20 43 
  402a12:	48 89 03             	mov    %rax,(%rbx)
  402a15:	48 b8 6c 69 65 6e 74 	movabs $0x6e7520746e65696c,%rax
  402a1c:	20 75 6e 
  402a1f:	48 89 43 08          	mov    %rax,0x8(%rbx)
  402a23:	48 b8 61 62 6c 65 20 	movabs $0x206f7420656c6261,%rax
  402a2a:	74 6f 20 
  402a2d:	48 89 43 10          	mov    %rax,0x10(%rbx)
  402a31:	48 b8 72 65 61 64 20 	movabs $0x6174732064616572,%rax
  402a38:	73 74 61 
  402a3b:	48 89 43 18          	mov    %rax,0x18(%rbx)
  402a3f:	48 b8 74 75 73 20 6d 	movabs $0x7373656d20737574,%rax
  402a46:	65 73 73 
  402a49:	48 89 43 20          	mov    %rax,0x20(%rbx)
  402a4d:	48 b8 61 67 65 20 66 	movabs $0x6d6f726620656761,%rax
  402a54:	72 6f 6d 
  402a57:	48 89 43 28          	mov    %rax,0x28(%rbx)
  402a5b:	48 b8 20 72 65 73 75 	movabs $0x20746c7573657220,%rax
  402a62:	6c 74 20 
  402a65:	48 89 43 30          	mov    %rax,0x30(%rbx)
  402a69:	c7 43 38 73 65 72 76 	movl   $0x76726573,0x38(%rbx)
  402a70:	66 c7 43 3c 65 72    	movw   $0x7265,0x3c(%rbx)
  402a76:	c6 43 3e 00          	movb   $0x0,0x3e(%rbx)
  402a7a:	89 ef                	mov    %ebp,%edi
  402a7c:	e8 af e2 ff ff       	callq  400d30 <close@plt>
  402a81:	b8 ff ff ff ff       	mov    $0xffffffff,%eax
  402a86:	e9 dc 00 00 00       	jmpq   402b67 <submitr+0x746>
  402a8b:	44 8b 44 24 1c       	mov    0x1c(%rsp),%r8d
  402a90:	41 81 f8 c8 00 00 00 	cmp    $0xc8,%r8d
  402a97:	74 37                	je     402ad0 <submitr+0x6af>
  402a99:	4c 8d 8c 24 40 80 00 	lea    0x8040(%rsp),%r9
  402aa0:	00 
  402aa1:	b9 38 3b 40 00       	mov    $0x403b38,%ecx
  402aa6:	48 c7 c2 ff ff ff ff 	mov    $0xffffffffffffffff,%rdx
  402aad:	be 01 00 00 00       	mov    $0x1,%esi
  402ab2:	48 89 df             	mov    %rbx,%rdi
  402ab5:	b8 00 00 00 00       	mov    $0x0,%eax
  402aba:	e8 c1 e3 ff ff       	callq  400e80 <__sprintf_chk@plt>
  402abf:	89 ef                	mov    %ebp,%edi
  402ac1:	e8 6a e2 ff ff       	callq  400d30 <close@plt>
  402ac6:	b8 ff ff ff ff       	mov    $0xffffffff,%eax
  402acb:	e9 97 00 00 00       	jmpq   402b67 <submitr+0x746>
  402ad0:	48 8d b4 24 40 20 00 	lea    0x2040(%rsp),%rsi
  402ad7:	00 
  402ad8:	48 89 df             	mov    %rbx,%rdi
  402adb:	e8 e0 e1 ff ff       	callq  400cc0 <strcpy@plt>
  402ae0:	89 ef                	mov    %ebp,%edi
  402ae2:	e8 49 e2 ff ff       	callq  400d30 <close@plt>
  402ae7:	0f b6 03             	movzbl (%rbx),%eax
  402aea:	ba 4f 00 00 00       	mov    $0x4f,%edx
  402aef:	29 c2                	sub    %eax,%edx
  402af1:	75 22                	jne    402b15 <submitr+0x6f4>
  402af3:	0f b6 4b 01          	movzbl 0x1(%rbx),%ecx
  402af7:	b8 4b 00 00 00       	mov    $0x4b,%eax
  402afc:	29 c8                	sub    %ecx,%eax
  402afe:	75 17                	jne    402b17 <submitr+0x6f6>
  402b00:	0f b6 4b 02          	movzbl 0x2(%rbx),%ecx
  402b04:	b8 0a 00 00 00       	mov    $0xa,%eax
  402b09:	29 c8                	sub    %ecx,%eax
  402b0b:	75 0a                	jne    402b17 <submitr+0x6f6>
  402b0d:	0f b6 43 03          	movzbl 0x3(%rbx),%eax
  402b11:	f7 d8                	neg    %eax
  402b13:	eb 02                	jmp    402b17 <submitr+0x6f6>
  402b15:	89 d0                	mov    %edx,%eax
  402b17:	85 c0                	test   %eax,%eax
  402b19:	74 40                	je     402b5b <submitr+0x73a>
  402b1b:	bf 80 3b 40 00       	mov    $0x403b80,%edi
  402b20:	b9 05 00 00 00       	mov    $0x5,%ecx
  402b25:	48 89 de             	mov    %rbx,%rsi
  402b28:	f3 a6                	repz cmpsb %es:(%rdi),%ds:(%rsi)
  402b2a:	0f 97 c0             	seta   %al
  402b2d:	0f 92 c1             	setb   %cl
  402b30:	29 c8                	sub    %ecx,%eax
  402b32:	0f be c0             	movsbl %al,%eax
  402b35:	85 c0                	test   %eax,%eax
  402b37:	74 2e                	je     402b67 <submitr+0x746>
  402b39:	85 d2                	test   %edx,%edx
  402b3b:	75 13                	jne    402b50 <submitr+0x72f>
  402b3d:	0f b6 43 01          	movzbl 0x1(%rbx),%eax
  402b41:	ba 4b 00 00 00       	mov    $0x4b,%edx
  402b46:	29 c2                	sub    %eax,%edx
  402b48:	75 06                	jne    402b50 <submitr+0x72f>
  402b4a:	0f b6 53 02          	movzbl 0x2(%rbx),%edx
  402b4e:	f7 da                	neg    %edx
  402b50:	85 d2                	test   %edx,%edx
  402b52:	75 0e                	jne    402b62 <submitr+0x741>
  402b54:	b8 00 00 00 00       	mov    $0x0,%eax
  402b59:	eb 0c                	jmp    402b67 <submitr+0x746>
  402b5b:	b8 00 00 00 00       	mov    $0x0,%eax
  402b60:	eb 05                	jmp    402b67 <submitr+0x746>
  402b62:	b8 ff ff ff ff       	mov    $0xffffffff,%eax
  402b67:	48 8b 9c 24 48 a0 00 	mov    0xa048(%rsp),%rbx
  402b6e:	00 
  402b6f:	64 48 33 1c 25 28 00 	xor    %fs:0x28,%rbx
  402b76:	00 00 
  402b78:	74 05                	je     402b7f <submitr+0x75e>
  402b7a:	e8 71 e1 ff ff       	callq  400cf0 <__stack_chk_fail@plt>
  402b7f:	48 81 c4 58 a0 00 00 	add    $0xa058,%rsp
  402b86:	5b                   	pop    %rbx
  402b87:	5d                   	pop    %rbp
  402b88:	41 5c                	pop    %r12
  402b8a:	41 5d                	pop    %r13
  402b8c:	41 5e                	pop    %r14
  402b8e:	41 5f                	pop    %r15
  402b90:	c3                   	retq   

0000000000402b91 <init_timeout>:
  402b91:	85 ff                	test   %edi,%edi
  402b93:	74 23                	je     402bb8 <init_timeout+0x27>
  402b95:	53                   	push   %rbx
  402b96:	89 fb                	mov    %edi,%ebx
  402b98:	85 ff                	test   %edi,%edi
  402b9a:	79 05                	jns    402ba1 <init_timeout+0x10>
  402b9c:	bb 00 00 00 00       	mov    $0x0,%ebx
  402ba1:	be 55 21 40 00       	mov    $0x402155,%esi
  402ba6:	bf 0e 00 00 00       	mov    $0xe,%edi
  402bab:	e8 b0 e1 ff ff       	callq  400d60 <signal@plt>
  402bb0:	89 df                	mov    %ebx,%edi
  402bb2:	e8 69 e1 ff ff       	callq  400d20 <alarm@plt>
  402bb7:	5b                   	pop    %rbx
  402bb8:	f3 c3                	repz retq 

0000000000402bba <init_driver>:
  402bba:	55                   	push   %rbp
  402bbb:	53                   	push   %rbx
  402bbc:	48 83 ec 28          	sub    $0x28,%rsp
  402bc0:	48 89 fd             	mov    %rdi,%rbp
  402bc3:	64 48 8b 04 25 28 00 	mov    %fs:0x28,%rax
  402bca:	00 00 
  402bcc:	48 89 44 24 18       	mov    %rax,0x18(%rsp)
  402bd1:	31 c0                	xor    %eax,%eax
  402bd3:	be 01 00 00 00       	mov    $0x1,%esi
  402bd8:	bf 0d 00 00 00       	mov    $0xd,%edi
  402bdd:	e8 7e e1 ff ff       	callq  400d60 <signal@plt>
  402be2:	be 01 00 00 00       	mov    $0x1,%esi
  402be7:	bf 1d 00 00 00       	mov    $0x1d,%edi
  402bec:	e8 6f e1 ff ff       	callq  400d60 <signal@plt>
  402bf1:	be 01 00 00 00       	mov    $0x1,%esi
  402bf6:	bf 1d 00 00 00       	mov    $0x1d,%edi
  402bfb:	e8 60 e1 ff ff       	callq  400d60 <signal@plt>
  402c00:	ba 00 00 00 00       	mov    $0x0,%edx
  402c05:	be 01 00 00 00       	mov    $0x1,%esi
  402c0a:	bf 02 00 00 00       	mov    $0x2,%edi
  402c0f:	e8 7c e2 ff ff       	callq  400e90 <socket@plt>
  402c14:	85 c0                	test   %eax,%eax
  402c16:	79 4f                	jns    402c67 <init_driver+0xad>
  402c18:	48 b8 45 72 72 6f 72 	movabs $0x43203a726f727245,%rax
  402c1f:	3a 20 43 
  402c22:	48 89 45 00          	mov    %rax,0x0(%rbp)
  402c26:	48 b8 6c 69 65 6e 74 	movabs $0x6e7520746e65696c,%rax
  402c2d:	20 75 6e 
  402c30:	48 89 45 08          	mov    %rax,0x8(%rbp)
  402c34:	48 b8 61 62 6c 65 20 	movabs $0x206f7420656c6261,%rax
  402c3b:	74 6f 20 
  402c3e:	48 89 45 10          	mov    %rax,0x10(%rbp)
  402c42:	48 b8 63 72 65 61 74 	movabs $0x7320657461657263,%rax
  402c49:	65 20 73 
  402c4c:	48 89 45 18          	mov    %rax,0x18(%rbp)
  402c50:	c7 45 20 6f 63 6b 65 	movl   $0x656b636f,0x20(%rbp)
  402c57:	66 c7 45 24 74 00    	movw   $0x74,0x24(%rbp)
  402c5d:	b8 ff ff ff ff       	mov    $0xffffffff,%eax
  402c62:	e9 2a 01 00 00       	jmpq   402d91 <init_driver+0x1d7>
  402c67:	89 c3                	mov    %eax,%ebx
  402c69:	bf 17 36 40 00       	mov    $0x403617,%edi
  402c6e:	e8 fd e0 ff ff       	callq  400d70 <gethostbyname@plt>
  402c73:	48 85 c0             	test   %rax,%rax
  402c76:	75 68                	jne    402ce0 <init_driver+0x126>
  402c78:	48 b8 45 72 72 6f 72 	movabs $0x44203a726f727245,%rax
  402c7f:	3a 20 44 
  402c82:	48 89 45 00          	mov    %rax,0x0(%rbp)
  402c86:	48 b8 4e 53 20 69 73 	movabs $0x6e7520736920534e,%rax
  402c8d:	20 75 6e 
  402c90:	48 89 45 08          	mov    %rax,0x8(%rbp)
  402c94:	48 b8 61 62 6c 65 20 	movabs $0x206f7420656c6261,%rax
  402c9b:	74 6f 20 
  402c9e:	48 89 45 10          	mov    %rax,0x10(%rbp)
  402ca2:	48 b8 72 65 73 6f 6c 	movabs $0x2065766c6f736572,%rax
  402ca9:	76 65 20 
  402cac:	48 89 45 18          	mov    %rax,0x18(%rbp)
  402cb0:	48 b8 73 65 72 76 65 	movabs $0x6120726576726573,%rax
  402cb7:	72 20 61 
  402cba:	48 89 45 20          	mov    %rax,0x20(%rbp)
  402cbe:	c7 45 28 64 64 72 65 	movl   $0x65726464,0x28(%rbp)
  402cc5:	66 c7 45 2c 73 73    	movw   $0x7373,0x2c(%rbp)
  402ccb:	c6 45 2e 00          	movb   $0x0,0x2e(%rbp)
  402ccf:	89 df                	mov    %ebx,%edi
  402cd1:	e8 5a e0 ff ff       	callq  400d30 <close@plt>
  402cd6:	b8 ff ff ff ff       	mov    $0xffffffff,%eax
  402cdb:	e9 b1 00 00 00       	jmpq   402d91 <init_driver+0x1d7>
  402ce0:	48 c7 04 24 00 00 00 	movq   $0x0,(%rsp)
  402ce7:	00 
  402ce8:	48 c7 44 24 08 00 00 	movq   $0x0,0x8(%rsp)
  402cef:	00 00 
  402cf1:	66 c7 04 24 02 00    	movw   $0x2,(%rsp)
  402cf7:	48 63 50 14          	movslq 0x14(%rax),%rdx
  402cfb:	48 8b 40 18          	mov    0x18(%rax),%rax
  402cff:	48 8b 30             	mov    (%rax),%rsi
  402d02:	48 8d 7c 24 04       	lea    0x4(%rsp),%rdi
  402d07:	b9 0c 00 00 00       	mov    $0xc,%ecx
  402d0c:	e8 6f e0 ff ff       	callq  400d80 <__memmove_chk@plt>
  402d11:	66 c7 44 24 02 3c 9a 	movw   $0x9a3c,0x2(%rsp)
  402d18:	ba 10 00 00 00       	mov    $0x10,%edx
  402d1d:	48 89 e6             	mov    %rsp,%rsi
  402d20:	89 df                	mov    %ebx,%edi
  402d22:	e8 39 e1 ff ff       	callq  400e60 <connect@plt>
  402d27:	85 c0                	test   %eax,%eax
  402d29:	79 50                	jns    402d7b <init_driver+0x1c1>
  402d2b:	48 b8 45 72 72 6f 72 	movabs $0x55203a726f727245,%rax
  402d32:	3a 20 55 
  402d35:	48 89 45 00          	mov    %rax,0x0(%rbp)
  402d39:	48 b8 6e 61 62 6c 65 	movabs $0x6f7420656c62616e,%rax
  402d40:	20 74 6f 
  402d43:	48 89 45 08          	mov    %rax,0x8(%rbp)
  402d47:	48 b8 20 63 6f 6e 6e 	movabs $0x7463656e6e6f6320,%rax
  402d4e:	65 63 74 
  402d51:	48 89 45 10          	mov    %rax,0x10(%rbp)
  402d55:	48 b8 20 74 6f 20 73 	movabs $0x76726573206f7420,%rax
  402d5c:	65 72 76 
  402d5f:	48 89 45 18          	mov    %rax,0x18(%rbp)
  402d63:	66 c7 45 20 65 72    	movw   $0x7265,0x20(%rbp)
  402d69:	c6 45 22 00          	movb   $0x0,0x22(%rbp)
  402d6d:	89 df                	mov    %ebx,%edi
  402d6f:	e8 bc df ff ff       	callq  400d30 <close@plt>
  402d74:	b8 ff ff ff ff       	mov    $0xffffffff,%eax
  402d79:	eb 16                	jmp    402d91 <init_driver+0x1d7>
  402d7b:	89 df                	mov    %ebx,%edi
  402d7d:	e8 ae df ff ff       	callq  400d30 <close@plt>
  402d82:	66 c7 45 00 4f 4b    	movw   $0x4b4f,0x0(%rbp)
  402d88:	c6 45 02 00          	movb   $0x0,0x2(%rbp)
  402d8c:	b8 00 00 00 00       	mov    $0x0,%eax
  402d91:	48 8b 4c 24 18       	mov    0x18(%rsp),%rcx
  402d96:	64 48 33 0c 25 28 00 	xor    %fs:0x28,%rcx
  402d9d:	00 00 
  402d9f:	74 05                	je     402da6 <init_driver+0x1ec>
  402da1:	e8 4a df ff ff       	callq  400cf0 <__stack_chk_fail@plt>
  402da6:	48 83 c4 28          	add    $0x28,%rsp
  402daa:	5b                   	pop    %rbx
  402dab:	5d                   	pop    %rbp
  402dac:	c3                   	retq   

0000000000402dad <driver_post>:
  402dad:	53                   	push   %rbx
  402dae:	4c 89 cb             	mov    %r9,%rbx
  402db1:	45 85 c0             	test   %r8d,%r8d
  402db4:	74 27                	je     402ddd <driver_post+0x30>
  402db6:	48 89 ca             	mov    %rcx,%rdx
  402db9:	be 85 3b 40 00       	mov    $0x403b85,%esi
  402dbe:	bf 01 00 00 00       	mov    $0x1,%edi
  402dc3:	b8 00 00 00 00       	mov    $0x0,%eax
  402dc8:	e8 33 e0 ff ff       	callq  400e00 <__printf_chk@plt>
  402dcd:	66 c7 03 4f 4b       	movw   $0x4b4f,(%rbx)
  402dd2:	c6 43 02 00          	movb   $0x0,0x2(%rbx)
  402dd6:	b8 00 00 00 00       	mov    $0x0,%eax
  402ddb:	eb 3f                	jmp    402e1c <driver_post+0x6f>
  402ddd:	48 85 ff             	test   %rdi,%rdi
  402de0:	74 2c                	je     402e0e <driver_post+0x61>
  402de2:	80 3f 00             	cmpb   $0x0,(%rdi)
  402de5:	74 27                	je     402e0e <driver_post+0x61>
  402de7:	48 83 ec 08          	sub    $0x8,%rsp
  402deb:	41 51                	push   %r9
  402ded:	49 89 c9             	mov    %rcx,%r9
  402df0:	49 89 d0             	mov    %rdx,%r8
  402df3:	48 89 f9             	mov    %rdi,%rcx
  402df6:	48 89 f2             	mov    %rsi,%rdx
  402df9:	be 9a 3c 00 00       	mov    $0x3c9a,%esi
  402dfe:	bf 17 36 40 00       	mov    $0x403617,%edi
  402e03:	e8 19 f6 ff ff       	callq  402421 <submitr>
  402e08:	48 83 c4 10          	add    $0x10,%rsp
  402e0c:	eb 0e                	jmp    402e1c <driver_post+0x6f>
  402e0e:	66 c7 03 4f 4b       	movw   $0x4b4f,(%rbx)
  402e13:	c6 43 02 00          	movb   $0x0,0x2(%rbx)
  402e17:	b8 00 00 00 00       	mov    $0x0,%eax
  402e1c:	5b                   	pop    %rbx
  402e1d:	c3                   	retq   

0000000000402e1e <check>:
  402e1e:	89 f8                	mov    %edi,%eax
  402e20:	c1 e8 1c             	shr    $0x1c,%eax
  402e23:	85 c0                	test   %eax,%eax
  402e25:	74 1d                	je     402e44 <check+0x26>
  402e27:	b9 00 00 00 00       	mov    $0x0,%ecx
  402e2c:	eb 0b                	jmp    402e39 <check+0x1b>
  402e2e:	89 f8                	mov    %edi,%eax
  402e30:	d3 e8                	shr    %cl,%eax
  402e32:	3c 0a                	cmp    $0xa,%al
  402e34:	74 14                	je     402e4a <check+0x2c>
  402e36:	83 c1 08             	add    $0x8,%ecx
  402e39:	83 f9 1f             	cmp    $0x1f,%ecx
  402e3c:	7e f0                	jle    402e2e <check+0x10>
  402e3e:	b8 01 00 00 00       	mov    $0x1,%eax
  402e43:	c3                   	retq   
  402e44:	b8 00 00 00 00       	mov    $0x0,%eax
  402e49:	c3                   	retq   
  402e4a:	b8 00 00 00 00       	mov    $0x0,%eax
  402e4f:	c3                   	retq   

0000000000402e50 <gencookie>:
  402e50:	53                   	push   %rbx
  402e51:	83 c7 01             	add    $0x1,%edi
  402e54:	e8 47 de ff ff       	callq  400ca0 <srandom@plt>
  402e59:	e8 62 df ff ff       	callq  400dc0 <random@plt>
  402e5e:	89 c3                	mov    %eax,%ebx
  402e60:	89 c7                	mov    %eax,%edi
  402e62:	e8 b7 ff ff ff       	callq  402e1e <check>
  402e67:	85 c0                	test   %eax,%eax
  402e69:	74 ee                	je     402e59 <gencookie+0x9>
  402e6b:	89 d8                	mov    %ebx,%eax
  402e6d:	5b                   	pop    %rbx
  402e6e:	c3                   	retq   
  402e6f:	90                   	nop

0000000000402e70 <__libc_csu_init>:
  402e70:	41 57                	push   %r15
  402e72:	41 56                	push   %r14
  402e74:	41 89 ff             	mov    %edi,%r15d
  402e77:	41 55                	push   %r13
  402e79:	41 54                	push   %r12
  402e7b:	4c 8d 25 8e 1f 20 00 	lea    0x201f8e(%rip),%r12        # 604e10 <__frame_dummy_init_array_entry>
  402e82:	55                   	push   %rbp
  402e83:	48 8d 2d 8e 1f 20 00 	lea    0x201f8e(%rip),%rbp        # 604e18 <__init_array_end>
  402e8a:	53                   	push   %rbx
  402e8b:	49 89 f6             	mov    %rsi,%r14
  402e8e:	49 89 d5             	mov    %rdx,%r13
  402e91:	4c 29 e5             	sub    %r12,%rbp
  402e94:	48 83 ec 08          	sub    $0x8,%rsp
  402e98:	48 c1 fd 03          	sar    $0x3,%rbp
  402e9c:	e8 a7 dd ff ff       	callq  400c48 <_init>
  402ea1:	48 85 ed             	test   %rbp,%rbp
  402ea4:	74 20                	je     402ec6 <__libc_csu_init+0x56>
  402ea6:	31 db                	xor    %ebx,%ebx
  402ea8:	0f 1f 84 00 00 00 00 	nopl   0x0(%rax,%rax,1)
  402eaf:	00 
  402eb0:	4c 89 ea             	mov    %r13,%rdx
  402eb3:	4c 89 f6             	mov    %r14,%rsi
  402eb6:	44 89 ff             	mov    %r15d,%edi
  402eb9:	41 ff 14 dc          	callq  *(%r12,%rbx,8)
  402ebd:	48 83 c3 01          	add    $0x1,%rbx
  402ec1:	48 39 eb             	cmp    %rbp,%rbx
  402ec4:	75 ea                	jne    402eb0 <__libc_csu_init+0x40>
  402ec6:	48 83 c4 08          	add    $0x8,%rsp
  402eca:	5b                   	pop    %rbx
  402ecb:	5d                   	pop    %rbp
  402ecc:	41 5c                	pop    %r12
  402ece:	41 5d                	pop    %r13
  402ed0:	41 5e                	pop    %r14
  402ed2:	41 5f                	pop    %r15
  402ed4:	c3                   	retq   
  402ed5:	90                   	nop
  402ed6:	66 2e 0f 1f 84 00 00 	nopw   %cs:0x0(%rax,%rax,1)
  402edd:	00 00 00 

0000000000402ee0 <__libc_csu_fini>:
  402ee0:	f3 c3                	repz retq 

Disassembly of section .fini:

0000000000402ee4 <_fini>:
  402ee4:	48 83 ec 08          	sub    $0x8,%rsp
  402ee8:	48 83 c4 08          	add    $0x8,%rsp
  402eec:	c3                   	retq   
